
Lab7.2.elf:     file format elf32-littlearm

Sections:
Idx Name          Size      VMA       LMA       File off  Algn
  0 .isr_vector   00000194  08000000  08000000  00010000  2**0
                  CONTENTS, ALLOC, LOAD, READONLY, DATA
  1 .text         00001548  08000194  08000194  00010194  2**2
                  CONTENTS, ALLOC, LOAD, READONLY, CODE
  2 .rodata       00000004  080016dc  080016dc  000116dc  2**2
                  CONTENTS, ALLOC, LOAD, READONLY, DATA
  3 .ARM.extab    00000000  080016e0  080016e0  00020038  2**0
                  CONTENTS
  4 .ARM          00000000  080016e0  080016e0  00020038  2**0
                  CONTENTS
  5 .preinit_array 00000000  080016e0  080016e0  00020038  2**0
                  CONTENTS, ALLOC, LOAD, DATA
  6 .init_array   00000004  080016e0  080016e0  000116e0  2**2
                  CONTENTS, ALLOC, LOAD, DATA
  7 .fini_array   00000004  080016e4  080016e4  000116e4  2**2
                  CONTENTS, ALLOC, LOAD, DATA
  8 .data         00000038  20000000  080016e8  00020000  2**2
                  CONTENTS, ALLOC, LOAD, DATA
  9 .bss          00000234  20000038  08001720  00020038  2**2
                  ALLOC
 10 ._user_heap_stack 00000604  2000026c  08001720  0002026c  2**0
                  ALLOC
 11 .ARM.attributes 00000030  00000000  00000000  00020038  2**0
                  CONTENTS, READONLY
 12 .comment      000000be  00000000  00000000  00020068  2**0
                  CONTENTS, READONLY
 13 .debug_info   00006813  00000000  00000000  00020126  2**0
                  CONTENTS, READONLY, DEBUGGING, OCTETS
 14 .debug_abbrev 0000136b  00000000  00000000  00026939  2**0
                  CONTENTS, READONLY, DEBUGGING, OCTETS
 15 .debug_aranges 000008a0  00000000  00000000  00027ca8  2**3
                  CONTENTS, READONLY, DEBUGGING, OCTETS
 16 .debug_rnglists 0000002c  00000000  00000000  00028548  2**0
                  CONTENTS, READONLY, DEBUGGING, OCTETS
 17 .debug_macro  0000dfd7  00000000  00000000  00028574  2**0
                  CONTENTS, READONLY, DEBUGGING, OCTETS
 18 .debug_line   00004e1c  00000000  00000000  0003654b  2**0
                  CONTENTS, READONLY, DEBUGGING, OCTETS
 19 .debug_str    000444f1  00000000  00000000  0003b367  2**0
                  CONTENTS, READONLY, DEBUGGING, OCTETS
 20 .debug_frame  000024fc  00000000  00000000  0007f858  2**2
                  CONTENTS, READONLY, DEBUGGING, OCTETS
 21 .debug_line_str 0000005d  00000000  00000000  00081d54  2**0
                  CONTENTS, READONLY, DEBUGGING, OCTETS
 22 .debug_ranges 000007b8  00000000  00000000  00081db1  2**0
                  CONTENTS, READONLY, DEBUGGING, OCTETS

Disassembly of section .text:

08000194 <__do_global_dtors_aux>:
 8000194:	b510      	push	{r4, lr}
 8000196:	4c05      	ldr	r4, [pc, #20]	; (80001ac <__do_global_dtors_aux+0x18>)
 8000198:	7823      	ldrb	r3, [r4, #0]
 800019a:	b933      	cbnz	r3, 80001aa <__do_global_dtors_aux+0x16>
 800019c:	4b04      	ldr	r3, [pc, #16]	; (80001b0 <__do_global_dtors_aux+0x1c>)
 800019e:	b113      	cbz	r3, 80001a6 <__do_global_dtors_aux+0x12>
 80001a0:	4804      	ldr	r0, [pc, #16]	; (80001b4 <__do_global_dtors_aux+0x20>)
 80001a2:	f3af 8000 	nop.w
 80001a6:	2301      	movs	r3, #1
 80001a8:	7023      	strb	r3, [r4, #0]
 80001aa:	bd10      	pop	{r4, pc}
 80001ac:	20000038 	.word	0x20000038
 80001b0:	00000000 	.word	0x00000000
 80001b4:	080016c4 	.word	0x080016c4

080001b8 <frame_dummy>:
 80001b8:	b508      	push	{r3, lr}
 80001ba:	4b03      	ldr	r3, [pc, #12]	; (80001c8 <frame_dummy+0x10>)
 80001bc:	b11b      	cbz	r3, 80001c6 <frame_dummy+0xe>
 80001be:	4903      	ldr	r1, [pc, #12]	; (80001cc <frame_dummy+0x14>)
 80001c0:	4803      	ldr	r0, [pc, #12]	; (80001d0 <frame_dummy+0x18>)
 80001c2:	f3af 8000 	nop.w
 80001c6:	bd08      	pop	{r3, pc}
 80001c8:	00000000 	.word	0x00000000
 80001cc:	2000003c 	.word	0x2000003c
 80001d0:	080016c4 	.word	0x080016c4

080001d4 <main>:
#include <stdint.h>
#include "led.h"
#include "button.h"

int main(void)
{
 80001d4:	b580      	push	{r7, lr}
 80001d6:	af00      	add	r7, sp, #0
	LedControl_Init();
 80001d8:	f000 fa1a 	bl	8000610 <LedControl_Init>
	Button_Init();
 80001dc:	f000 f842 	bl	8000264 <Button_Init>

	while(1)
	{
		while (Button_GetLogicInputPin(BUTTON_BOARD_ID) == 0)
 80001e0:	e00f      	b.n	8000202 <main+0x2e>
		{
			LedControl_SetColorGeneral(LED_KIT_ID1, LED_COLOR_GREEN, 100);
 80001e2:	2264      	movs	r2, #100	; 0x64
 80001e4:	2101      	movs	r1, #1
 80001e6:	2002      	movs	r0, #2
 80001e8:	f000 fa96 	bl	8000718 <LedControl_SetColorGeneral>
			if (Button_GetLogicInputPin(BUTTON_BOARD_ID) == 1) LedControl_SetColorGeneral(LED_KIT_ID1, LED_COLOR_GREEN, 00);
 80001ec:	2000      	movs	r0, #0
 80001ee:	f000 f897 	bl	8000320 <Button_GetLogicInputPin>
 80001f2:	4603      	mov	r3, r0
 80001f4:	2b01      	cmp	r3, #1
 80001f6:	d104      	bne.n	8000202 <main+0x2e>
 80001f8:	2200      	movs	r2, #0
 80001fa:	2101      	movs	r1, #1
 80001fc:	2002      	movs	r0, #2
 80001fe:	f000 fa8b 	bl	8000718 <LedControl_SetColorGeneral>
		while (Button_GetLogicInputPin(BUTTON_BOARD_ID) == 0)
 8000202:	2000      	movs	r0, #0
 8000204:	f000 f88c 	bl	8000320 <Button_GetLogicInputPin>
 8000208:	4603      	mov	r3, r0
 800020a:	2b00      	cmp	r3, #0
 800020c:	d0e9      	beq.n	80001e2 <main+0xe>
 800020e:	e7f8      	b.n	8000202 <main+0x2e>

08000210 <Reset_Handler>:

  .section .text.Reset_Handler
  .weak Reset_Handler
  .type Reset_Handler, %function
Reset_Handler:
  ldr   r0, =_estack
 8000210:	480d      	ldr	r0, [pc, #52]	; (8000248 <LoopForever+0x2>)
  mov   sp, r0          /* set stack pointer */
 8000212:	4685      	mov	sp, r0
/* Call the clock system initialization function.*/
  bl  SystemInit
 8000214:	f000 fcda 	bl	8000bcc <SystemInit>

/* Copy the data segment initializers from flash to SRAM */
  ldr r0, =_sdata
 8000218:	480c      	ldr	r0, [pc, #48]	; (800024c <LoopForever+0x6>)
  ldr r1, =_edata
 800021a:	490d      	ldr	r1, [pc, #52]	; (8000250 <LoopForever+0xa>)
  ldr r2, =_sidata
 800021c:	4a0d      	ldr	r2, [pc, #52]	; (8000254 <LoopForever+0xe>)
  movs r3, #0
 800021e:	2300      	movs	r3, #0
  b LoopCopyDataInit
 8000220:	e002      	b.n	8000228 <LoopCopyDataInit>

08000222 <CopyDataInit>:

CopyDataInit:
  ldr r4, [r2, r3]
 8000222:	58d4      	ldr	r4, [r2, r3]
  str r4, [r0, r3]
 8000224:	50c4      	str	r4, [r0, r3]
  adds r3, r3, #4
 8000226:	3304      	adds	r3, #4

08000228 <LoopCopyDataInit>:

LoopCopyDataInit:
  adds r4, r0, r3
 8000228:	18c4      	adds	r4, r0, r3
  cmp r4, r1
 800022a:	428c      	cmp	r4, r1
  bcc CopyDataInit
 800022c:	d3f9      	bcc.n	8000222 <CopyDataInit>

/* Zero fill the bss segment. */
  ldr r2, =_sbss
 800022e:	4a0a      	ldr	r2, [pc, #40]	; (8000258 <LoopForever+0x12>)
  ldr r4, =_ebss
 8000230:	4c0a      	ldr	r4, [pc, #40]	; (800025c <LoopForever+0x16>)
  movs r3, #0
 8000232:	2300      	movs	r3, #0
  b LoopFillZerobss
 8000234:	e001      	b.n	800023a <LoopFillZerobss>

08000236 <FillZerobss>:

FillZerobss:
  str  r3, [r2]
 8000236:	6013      	str	r3, [r2, #0]
  adds r2, r2, #4
 8000238:	3204      	adds	r2, #4

0800023a <LoopFillZerobss>:

LoopFillZerobss:
  cmp r2, r4
 800023a:	42a2      	cmp	r2, r4
  bcc FillZerobss
 800023c:	d3fb      	bcc.n	8000236 <FillZerobss>

/* Call static constructors */
  bl __libc_init_array
 800023e:	f001 fa1d 	bl	800167c <__libc_init_array>
/* Call the application's entry point.*/
  bl main
 8000242:	f7ff ffc7 	bl	80001d4 <main>

08000246 <LoopForever>:

LoopForever:
  b LoopForever
 8000246:	e7fe      	b.n	8000246 <LoopForever>
  ldr   r0, =_estack
 8000248:	20018000 	.word	0x20018000
  ldr r0, =_sdata
 800024c:	20000000 	.word	0x20000000
  ldr r1, =_edata
 8000250:	20000038 	.word	0x20000038
  ldr r2, =_sidata
 8000254:	080016e8 	.word	0x080016e8
  ldr r2, =_sbss
 8000258:	20000038 	.word	0x20000038
  ldr r4, =_ebss
 800025c:	2000026c 	.word	0x2000026c

08000260 <ADC_IRQHandler>:
 * @retval : None
*/
  .section .text.Default_Handler,"ax",%progbits
Default_Handler:
Infinite_Loop:
  b Infinite_Loop
 8000260:	e7fe      	b.n	8000260 <ADC_IRQHandler>
	...

08000264 <Button_Init>:
 8000264:	b580      	push	{r7, lr}
 8000266:	b084      	sub	sp, #16
 8000268:	af02      	add	r7, sp, #8
 800026a:	f000 f99b 	bl	80005a4 <BTNGPIO_Init>
 800026e:	2300      	movs	r3, #0
 8000270:	71fb      	strb	r3, [r7, #7]
 8000272:	e035      	b.n	80002e0 <Button_Init+0x7c>
 8000274:	79fa      	ldrb	r2, [r7, #7]
 8000276:	4924      	ldr	r1, [pc, #144]	; (8000308 <Button_Init+0xa4>)
 8000278:	4613      	mov	r3, r2
 800027a:	009b      	lsls	r3, r3, #2
 800027c:	4413      	add	r3, r2
 800027e:	009b      	lsls	r3, r3, #2
 8000280:	440b      	add	r3, r1
 8000282:	330a      	adds	r3, #10
 8000284:	79fa      	ldrb	r2, [r7, #7]
 8000286:	701a      	strb	r2, [r3, #0]
 8000288:	79fa      	ldrb	r2, [r7, #7]
 800028a:	491f      	ldr	r1, [pc, #124]	; (8000308 <Button_Init+0xa4>)
 800028c:	4613      	mov	r3, r2
 800028e:	009b      	lsls	r3, r3, #2
 8000290:	4413      	add	r3, r2
 8000292:	009b      	lsls	r3, r3, #2
 8000294:	440b      	add	r3, r1
 8000296:	3310      	adds	r3, #16
 8000298:	4a1c      	ldr	r2, [pc, #112]	; (800030c <Button_Init+0xa8>)
 800029a:	601a      	str	r2, [r3, #0]
 800029c:	79fb      	ldrb	r3, [r7, #7]
 800029e:	4a1c      	ldr	r2, [pc, #112]	; (8000310 <Button_Init+0xac>)
 80002a0:	f852 0033 	ldr.w	r0, [r2, r3, lsl #3]
 80002a4:	79fb      	ldrb	r3, [r7, #7]
 80002a6:	4a1a      	ldr	r2, [pc, #104]	; (8000310 <Button_Init+0xac>)
 80002a8:	00db      	lsls	r3, r3, #3
 80002aa:	4413      	add	r3, r2
 80002ac:	889b      	ldrh	r3, [r3, #4]
 80002ae:	4619      	mov	r1, r3
 80002b0:	f000 fda0 	bl	8000df4 <GPIO_ReadInputDataBit>
 80002b4:	4603      	mov	r3, r0
 80002b6:	4619      	mov	r1, r3
 80002b8:	79fb      	ldrb	r3, [r7, #7]
 80002ba:	4a15      	ldr	r2, [pc, #84]	; (8000310 <Button_Init+0xac>)
 80002bc:	00db      	lsls	r3, r3, #3
 80002be:	4413      	add	r3, r2
 80002c0:	799b      	ldrb	r3, [r3, #6]
 80002c2:	4299      	cmp	r1, r3
 80002c4:	d109      	bne.n	80002da <Button_Init+0x76>
 80002c6:	79fa      	ldrb	r2, [r7, #7]
 80002c8:	490f      	ldr	r1, [pc, #60]	; (8000308 <Button_Init+0xa4>)
 80002ca:	4613      	mov	r3, r2
 80002cc:	009b      	lsls	r3, r3, #2
 80002ce:	4413      	add	r3, r2
 80002d0:	009b      	lsls	r3, r3, #2
 80002d2:	440b      	add	r3, r1
 80002d4:	3309      	adds	r3, #9
 80002d6:	2201      	movs	r2, #1
 80002d8:	701a      	strb	r2, [r3, #0]
 80002da:	79fb      	ldrb	r3, [r7, #7]
 80002dc:	3301      	adds	r3, #1
 80002de:	71fb      	strb	r3, [r7, #7]
 80002e0:	79fb      	ldrb	r3, [r7, #7]
 80002e2:	2b05      	cmp	r3, #5
 80002e4:	d9c6      	bls.n	8000274 <Button_Init+0x10>
 80002e6:	2300      	movs	r3, #0
 80002e8:	9300      	str	r3, [sp, #0]
 80002ea:	4b0a      	ldr	r3, [pc, #40]	; (8000314 <Button_Init+0xb0>)
 80002ec:	22ff      	movs	r2, #255	; 0xff
 80002ee:	2105      	movs	r1, #5
 80002f0:	4809      	ldr	r0, [pc, #36]	; (8000318 <Button_Init+0xb4>)
 80002f2:	f000 fb65 	bl	80009c0 <TimerStart>
 80002f6:	4603      	mov	r3, r0
 80002f8:	461a      	mov	r2, r3
 80002fa:	4b08      	ldr	r3, [pc, #32]	; (800031c <Button_Init+0xb8>)
 80002fc:	701a      	strb	r2, [r3, #0]
 80002fe:	bf00      	nop
 8000300:	3708      	adds	r7, #8
 8000302:	46bd      	mov	sp, r7
 8000304:	bd80      	pop	{r7, pc}
 8000306:	bf00      	nop
 8000308:	20000054 	.word	0x20000054
 800030c:	0800035d 	.word	0x0800035d
 8000310:	20000000 	.word	0x20000000
 8000314:	08000559 	.word	0x08000559
 8000318:	080016dc 	.word	0x080016dc
 800031c:	20000030 	.word	0x20000030

08000320 <Button_GetLogicInputPin>:
 8000320:	b580      	push	{r7, lr}
 8000322:	b082      	sub	sp, #8
 8000324:	af00      	add	r7, sp, #0
 8000326:	4603      	mov	r3, r0
 8000328:	71fb      	strb	r3, [r7, #7]
 800032a:	79fb      	ldrb	r3, [r7, #7]
 800032c:	2b05      	cmp	r3, #5
 800032e:	d901      	bls.n	8000334 <Button_GetLogicInputPin+0x14>
 8000330:	23fe      	movs	r3, #254	; 0xfe
 8000332:	e00c      	b.n	800034e <Button_GetLogicInputPin+0x2e>
 8000334:	79fb      	ldrb	r3, [r7, #7]
 8000336:	4a08      	ldr	r2, [pc, #32]	; (8000358 <Button_GetLogicInputPin+0x38>)
 8000338:	f852 0033 	ldr.w	r0, [r2, r3, lsl #3]
 800033c:	79fb      	ldrb	r3, [r7, #7]
 800033e:	4a06      	ldr	r2, [pc, #24]	; (8000358 <Button_GetLogicInputPin+0x38>)
 8000340:	00db      	lsls	r3, r3, #3
 8000342:	4413      	add	r3, r2
 8000344:	889b      	ldrh	r3, [r3, #4]
 8000346:	4619      	mov	r1, r3
 8000348:	f000 fd54 	bl	8000df4 <GPIO_ReadInputDataBit>
 800034c:	4603      	mov	r3, r0
 800034e:	4618      	mov	r0, r3
 8000350:	3708      	adds	r7, #8
 8000352:	46bd      	mov	sp, r7
 8000354:	bd80      	pop	{r7, pc}
 8000356:	bf00      	nop
 8000358:	20000000 	.word	0x20000000

0800035c <ButtonScanTypeEdge>:
 800035c:	b580      	push	{r7, lr}
 800035e:	b084      	sub	sp, #16
 8000360:	af00      	add	r7, sp, #0
 8000362:	6078      	str	r0, [r7, #4]
 8000364:	687b      	ldr	r3, [r7, #4]
 8000366:	60fb      	str	r3, [r7, #12]
 8000368:	68fb      	ldr	r3, [r7, #12]
 800036a:	7a9b      	ldrb	r3, [r3, #10]
 800036c:	72fb      	strb	r3, [r7, #11]
 800036e:	7afb      	ldrb	r3, [r7, #11]
 8000370:	4a77      	ldr	r2, [pc, #476]	; (8000550 <ButtonScanTypeEdge+0x1f4>)
 8000372:	f852 0033 	ldr.w	r0, [r2, r3, lsl #3]
 8000376:	7afb      	ldrb	r3, [r7, #11]
 8000378:	4a75      	ldr	r2, [pc, #468]	; (8000550 <ButtonScanTypeEdge+0x1f4>)
 800037a:	00db      	lsls	r3, r3, #3
 800037c:	4413      	add	r3, r2
 800037e:	889b      	ldrh	r3, [r3, #4]
 8000380:	4619      	mov	r1, r3
 8000382:	f000 fd37 	bl	8000df4 <GPIO_ReadInputDataBit>
 8000386:	4603      	mov	r3, r0
 8000388:	4619      	mov	r1, r3
 800038a:	7afb      	ldrb	r3, [r7, #11]
 800038c:	4a70      	ldr	r2, [pc, #448]	; (8000550 <ButtonScanTypeEdge+0x1f4>)
 800038e:	00db      	lsls	r3, r3, #3
 8000390:	4413      	add	r3, r2
 8000392:	799b      	ldrb	r3, [r3, #6]
 8000394:	4299      	cmp	r1, r3
 8000396:	d10a      	bne.n	80003ae <ButtonScanTypeEdge+0x52>
 8000398:	68fb      	ldr	r3, [r7, #12]
 800039a:	7b5b      	ldrb	r3, [r3, #13]
 800039c:	2bff      	cmp	r3, #255	; 0xff
 800039e:	d013      	beq.n	80003c8 <ButtonScanTypeEdge+0x6c>
 80003a0:	68fb      	ldr	r3, [r7, #12]
 80003a2:	7b5b      	ldrb	r3, [r3, #13]
 80003a4:	3301      	adds	r3, #1
 80003a6:	b2da      	uxtb	r2, r3
 80003a8:	68fb      	ldr	r3, [r7, #12]
 80003aa:	735a      	strb	r2, [r3, #13]
 80003ac:	e00c      	b.n	80003c8 <ButtonScanTypeEdge+0x6c>
 80003ae:	68fb      	ldr	r3, [r7, #12]
 80003b0:	7b1b      	ldrb	r3, [r3, #12]
 80003b2:	2bff      	cmp	r3, #255	; 0xff
 80003b4:	d005      	beq.n	80003c2 <ButtonScanTypeEdge+0x66>
 80003b6:	68fb      	ldr	r3, [r7, #12]
 80003b8:	7b1b      	ldrb	r3, [r3, #12]
 80003ba:	3301      	adds	r3, #1
 80003bc:	b2da      	uxtb	r2, r3
 80003be:	68fb      	ldr	r3, [r7, #12]
 80003c0:	731a      	strb	r2, [r3, #12]
 80003c2:	68fb      	ldr	r3, [r7, #12]
 80003c4:	2200      	movs	r2, #0
 80003c6:	735a      	strb	r2, [r3, #13]
 80003c8:	68fb      	ldr	r3, [r7, #12]
 80003ca:	7b1b      	ldrb	r3, [r3, #12]
 80003cc:	2b09      	cmp	r3, #9
 80003ce:	d958      	bls.n	8000482 <ButtonScanTypeEdge+0x126>
 80003d0:	68fb      	ldr	r3, [r7, #12]
 80003d2:	7a5b      	ldrb	r3, [r3, #9]
 80003d4:	2b01      	cmp	r3, #1
 80003d6:	d118      	bne.n	800040a <ButtonScanTypeEdge+0xae>
 80003d8:	68fb      	ldr	r3, [r7, #12]
 80003da:	2200      	movs	r2, #0
 80003dc:	725a      	strb	r2, [r3, #9]
 80003de:	4b5d      	ldr	r3, [pc, #372]	; (8000554 <ButtonScanTypeEdge+0x1f8>)
 80003e0:	681b      	ldr	r3, [r3, #0]
 80003e2:	2b00      	cmp	r3, #0
 80003e4:	d00b      	beq.n	80003fe <ButtonScanTypeEdge+0xa2>
 80003e6:	68fb      	ldr	r3, [r7, #12]
 80003e8:	7adb      	ldrb	r3, [r3, #11]
 80003ea:	f003 0302 	and.w	r3, r3, #2
 80003ee:	2b00      	cmp	r3, #0
 80003f0:	d005      	beq.n	80003fe <ButtonScanTypeEdge+0xa2>
 80003f2:	4b58      	ldr	r3, [pc, #352]	; (8000554 <ButtonScanTypeEdge+0x1f8>)
 80003f4:	681b      	ldr	r3, [r3, #0]
 80003f6:	7afa      	ldrb	r2, [r7, #11]
 80003f8:	2101      	movs	r1, #1
 80003fa:	4610      	mov	r0, r2
 80003fc:	4798      	blx	r3
 80003fe:	68fb      	ldr	r3, [r7, #12]
 8000400:	7b1b      	ldrb	r3, [r3, #12]
 8000402:	461a      	mov	r2, r3
 8000404:	68fb      	ldr	r3, [r7, #12]
 8000406:	601a      	str	r2, [r3, #0]
 8000408:	e03b      	b.n	8000482 <ButtonScanTypeEdge+0x126>
 800040a:	68fb      	ldr	r3, [r7, #12]
 800040c:	681b      	ldr	r3, [r3, #0]
 800040e:	1c5a      	adds	r2, r3, #1
 8000410:	68fb      	ldr	r3, [r7, #12]
 8000412:	601a      	str	r2, [r3, #0]
 8000414:	68fb      	ldr	r3, [r7, #12]
 8000416:	681b      	ldr	r3, [r3, #0]
 8000418:	2b4f      	cmp	r3, #79	; 0x4f
 800041a:	d932      	bls.n	8000482 <ButtonScanTypeEdge+0x126>
 800041c:	68fb      	ldr	r3, [r7, #12]
 800041e:	685b      	ldr	r3, [r3, #4]
 8000420:	2b00      	cmp	r3, #0
 8000422:	d012      	beq.n	800044a <ButtonScanTypeEdge+0xee>
 8000424:	4b4b      	ldr	r3, [pc, #300]	; (8000554 <ButtonScanTypeEdge+0x1f8>)
 8000426:	68db      	ldr	r3, [r3, #12]
 8000428:	2b00      	cmp	r3, #0
 800042a:	d024      	beq.n	8000476 <ButtonScanTypeEdge+0x11a>
 800042c:	68fb      	ldr	r3, [r7, #12]
 800042e:	7adb      	ldrb	r3, [r3, #11]
 8000430:	f003 0301 	and.w	r3, r3, #1
 8000434:	2b00      	cmp	r3, #0
 8000436:	d01e      	beq.n	8000476 <ButtonScanTypeEdge+0x11a>
 8000438:	4b46      	ldr	r3, [pc, #280]	; (8000554 <ButtonScanTypeEdge+0x1f8>)
 800043a:	68db      	ldr	r3, [r3, #12]
 800043c:	68fa      	ldr	r2, [r7, #12]
 800043e:	6852      	ldr	r2, [r2, #4]
 8000440:	b291      	uxth	r1, r2
 8000442:	7afa      	ldrb	r2, [r7, #11]
 8000444:	4610      	mov	r0, r2
 8000446:	4798      	blx	r3
 8000448:	e015      	b.n	8000476 <ButtonScanTypeEdge+0x11a>
 800044a:	4b42      	ldr	r3, [pc, #264]	; (8000554 <ButtonScanTypeEdge+0x1f8>)
 800044c:	685b      	ldr	r3, [r3, #4]
 800044e:	2b00      	cmp	r3, #0
 8000450:	d011      	beq.n	8000476 <ButtonScanTypeEdge+0x11a>
 8000452:	68fb      	ldr	r3, [r7, #12]
 8000454:	7adb      	ldrb	r3, [r3, #11]
 8000456:	f003 0301 	and.w	r3, r3, #1
 800045a:	2b00      	cmp	r3, #0
 800045c:	d00b      	beq.n	8000476 <ButtonScanTypeEdge+0x11a>
 800045e:	68fb      	ldr	r3, [r7, #12]
 8000460:	7a1b      	ldrb	r3, [r3, #8]
 8000462:	2b00      	cmp	r3, #0
 8000464:	d007      	beq.n	8000476 <ButtonScanTypeEdge+0x11a>
 8000466:	4b3b      	ldr	r3, [pc, #236]	; (8000554 <ButtonScanTypeEdge+0x1f8>)
 8000468:	685b      	ldr	r3, [r3, #4]
 800046a:	68fa      	ldr	r2, [r7, #12]
 800046c:	7a12      	ldrb	r2, [r2, #8]
 800046e:	b291      	uxth	r1, r2
 8000470:	7afa      	ldrb	r2, [r7, #11]
 8000472:	4610      	mov	r0, r2
 8000474:	4798      	blx	r3
 8000476:	68fb      	ldr	r3, [r7, #12]
 8000478:	2200      	movs	r2, #0
 800047a:	605a      	str	r2, [r3, #4]
 800047c:	68fb      	ldr	r3, [r7, #12]
 800047e:	2200      	movs	r2, #0
 8000480:	721a      	strb	r2, [r3, #8]
 8000482:	68fb      	ldr	r3, [r7, #12]
 8000484:	7b5b      	ldrb	r3, [r3, #13]
 8000486:	2b09      	cmp	r3, #9
 8000488:	d95e      	bls.n	8000548 <ButtonScanTypeEdge+0x1ec>
 800048a:	68fb      	ldr	r3, [r7, #12]
 800048c:	2200      	movs	r2, #0
 800048e:	731a      	strb	r2, [r3, #12]
 8000490:	68fb      	ldr	r3, [r7, #12]
 8000492:	7a5b      	ldrb	r3, [r3, #9]
 8000494:	2b00      	cmp	r3, #0
 8000496:	d11e      	bne.n	80004d6 <ButtonScanTypeEdge+0x17a>
 8000498:	68fb      	ldr	r3, [r7, #12]
 800049a:	2201      	movs	r2, #1
 800049c:	725a      	strb	r2, [r3, #9]
 800049e:	4b2d      	ldr	r3, [pc, #180]	; (8000554 <ButtonScanTypeEdge+0x1f8>)
 80004a0:	681b      	ldr	r3, [r3, #0]
 80004a2:	2b00      	cmp	r3, #0
 80004a4:	d00b      	beq.n	80004be <ButtonScanTypeEdge+0x162>
 80004a6:	68fb      	ldr	r3, [r7, #12]
 80004a8:	7adb      	ldrb	r3, [r3, #11]
 80004aa:	f003 0302 	and.w	r3, r3, #2
 80004ae:	2b00      	cmp	r3, #0
 80004b0:	d005      	beq.n	80004be <ButtonScanTypeEdge+0x162>
 80004b2:	4b28      	ldr	r3, [pc, #160]	; (8000554 <ButtonScanTypeEdge+0x1f8>)
 80004b4:	681b      	ldr	r3, [r3, #0]
 80004b6:	7afa      	ldrb	r2, [r7, #11]
 80004b8:	2100      	movs	r1, #0
 80004ba:	4610      	mov	r0, r2
 80004bc:	4798      	blx	r3
 80004be:	68fb      	ldr	r3, [r7, #12]
 80004c0:	7b5b      	ldrb	r3, [r3, #13]
 80004c2:	461a      	mov	r2, r3
 80004c4:	68fb      	ldr	r3, [r7, #12]
 80004c6:	601a      	str	r2, [r3, #0]
 80004c8:	68fb      	ldr	r3, [r7, #12]
 80004ca:	7a1b      	ldrb	r3, [r3, #8]
 80004cc:	3301      	adds	r3, #1
 80004ce:	b2da      	uxtb	r2, r3
 80004d0:	68fb      	ldr	r3, [r7, #12]
 80004d2:	721a      	strb	r2, [r3, #8]
 80004d4:	e038      	b.n	8000548 <ButtonScanTypeEdge+0x1ec>
 80004d6:	68fb      	ldr	r3, [r7, #12]
 80004d8:	681b      	ldr	r3, [r3, #0]
 80004da:	1c5a      	adds	r2, r3, #1
 80004dc:	68fb      	ldr	r3, [r7, #12]
 80004de:	601a      	str	r2, [r3, #0]
 80004e0:	68fb      	ldr	r3, [r7, #12]
 80004e2:	681b      	ldr	r3, [r3, #0]
 80004e4:	2b77      	cmp	r3, #119	; 0x77
 80004e6:	d92f      	bls.n	8000548 <ButtonScanTypeEdge+0x1ec>
 80004e8:	68fb      	ldr	r3, [r7, #12]
 80004ea:	2200      	movs	r2, #0
 80004ec:	721a      	strb	r2, [r3, #8]
 80004ee:	68fb      	ldr	r3, [r7, #12]
 80004f0:	681a      	ldr	r2, [r3, #0]
 80004f2:	68fb      	ldr	r3, [r7, #12]
 80004f4:	605a      	str	r2, [r3, #4]
 80004f6:	68fb      	ldr	r3, [r7, #12]
 80004f8:	685b      	ldr	r3, [r3, #4]
 80004fa:	2b78      	cmp	r3, #120	; 0x78
 80004fc:	d012      	beq.n	8000524 <ButtonScanTypeEdge+0x1c8>
 80004fe:	68fb      	ldr	r3, [r7, #12]
 8000500:	685b      	ldr	r3, [r3, #4]
 8000502:	2bc8      	cmp	r3, #200	; 0xc8
 8000504:	d00e      	beq.n	8000524 <ButtonScanTypeEdge+0x1c8>
 8000506:	68fb      	ldr	r3, [r7, #12]
 8000508:	685b      	ldr	r3, [r3, #4]
 800050a:	f5b3 7f16 	cmp.w	r3, #600	; 0x258
 800050e:	d009      	beq.n	8000524 <ButtonScanTypeEdge+0x1c8>
 8000510:	68fb      	ldr	r3, [r7, #12]
 8000512:	685b      	ldr	r3, [r3, #4]
 8000514:	f5b3 7f7a 	cmp.w	r3, #1000	; 0x3e8
 8000518:	d004      	beq.n	8000524 <ButtonScanTypeEdge+0x1c8>
 800051a:	68fb      	ldr	r3, [r7, #12]
 800051c:	685b      	ldr	r3, [r3, #4]
 800051e:	f5b3 6ffa 	cmp.w	r3, #2000	; 0x7d0
 8000522:	d111      	bne.n	8000548 <ButtonScanTypeEdge+0x1ec>
 8000524:	4b0b      	ldr	r3, [pc, #44]	; (8000554 <ButtonScanTypeEdge+0x1f8>)
 8000526:	689b      	ldr	r3, [r3, #8]
 8000528:	2b00      	cmp	r3, #0
 800052a:	d00d      	beq.n	8000548 <ButtonScanTypeEdge+0x1ec>
 800052c:	68fb      	ldr	r3, [r7, #12]
 800052e:	7adb      	ldrb	r3, [r3, #11]
 8000530:	f003 0301 	and.w	r3, r3, #1
 8000534:	2b00      	cmp	r3, #0
 8000536:	d007      	beq.n	8000548 <ButtonScanTypeEdge+0x1ec>
 8000538:	4b06      	ldr	r3, [pc, #24]	; (8000554 <ButtonScanTypeEdge+0x1f8>)
 800053a:	689b      	ldr	r3, [r3, #8]
 800053c:	68fa      	ldr	r2, [r7, #12]
 800053e:	6852      	ldr	r2, [r2, #4]
 8000540:	b291      	uxth	r1, r2
 8000542:	7afa      	ldrb	r2, [r7, #11]
 8000544:	4610      	mov	r0, r2
 8000546:	4798      	blx	r3
 8000548:	bf00      	nop
 800054a:	3710      	adds	r7, #16
 800054c:	46bd      	mov	sp, r7
 800054e:	bd80      	pop	{r7, pc}
 8000550:	20000000 	.word	0x20000000
 8000554:	200000cc 	.word	0x200000cc

08000558 <ButtonScan>:
 8000558:	b580      	push	{r7, lr}
 800055a:	b084      	sub	sp, #16
 800055c:	af00      	add	r7, sp, #0
 800055e:	6078      	str	r0, [r7, #4]
 8000560:	2300      	movs	r3, #0
 8000562:	73fb      	strb	r3, [r7, #15]
 8000564:	e014      	b.n	8000590 <ButtonScan+0x38>
 8000566:	7bfa      	ldrb	r2, [r7, #15]
 8000568:	490d      	ldr	r1, [pc, #52]	; (80005a0 <ButtonScan+0x48>)
 800056a:	4613      	mov	r3, r2
 800056c:	009b      	lsls	r3, r3, #2
 800056e:	4413      	add	r3, r2
 8000570:	009b      	lsls	r3, r3, #2
 8000572:	440b      	add	r3, r1
 8000574:	3310      	adds	r3, #16
 8000576:	6819      	ldr	r1, [r3, #0]
 8000578:	7bfa      	ldrb	r2, [r7, #15]
 800057a:	4613      	mov	r3, r2
 800057c:	009b      	lsls	r3, r3, #2
 800057e:	4413      	add	r3, r2
 8000580:	009b      	lsls	r3, r3, #2
 8000582:	4a07      	ldr	r2, [pc, #28]	; (80005a0 <ButtonScan+0x48>)
 8000584:	4413      	add	r3, r2
 8000586:	4618      	mov	r0, r3
 8000588:	4788      	blx	r1
 800058a:	7bfb      	ldrb	r3, [r7, #15]
 800058c:	3301      	adds	r3, #1
 800058e:	73fb      	strb	r3, [r7, #15]
 8000590:	7bfb      	ldrb	r3, [r7, #15]
 8000592:	2b05      	cmp	r3, #5
 8000594:	d9e7      	bls.n	8000566 <ButtonScan+0xe>
 8000596:	bf00      	nop
 8000598:	3710      	adds	r7, #16
 800059a:	46bd      	mov	sp, r7
 800059c:	bd80      	pop	{r7, pc}
 800059e:	bf00      	nop
 80005a0:	20000054 	.word	0x20000054

080005a4 <BTNGPIO_Init>:
 80005a4:	b580      	push	{r7, lr}
 80005a6:	b082      	sub	sp, #8
 80005a8:	af00      	add	r7, sp, #0
 80005aa:	2101      	movs	r1, #1
 80005ac:	2001      	movs	r0, #1
 80005ae:	f000 fca3 	bl	8000ef8 <RCC_AHB1PeriphClockCmd>
 80005b2:	2101      	movs	r1, #1
 80005b4:	2002      	movs	r0, #2
 80005b6:	f000 fc9f 	bl	8000ef8 <RCC_AHB1PeriphClockCmd>
 80005ba:	2101      	movs	r1, #1
 80005bc:	2004      	movs	r0, #4
 80005be:	f000 fc9b 	bl	8000ef8 <RCC_AHB1PeriphClockCmd>
 80005c2:	2300      	movs	r3, #0
 80005c4:	713b      	strb	r3, [r7, #4]
 80005c6:	2303      	movs	r3, #3
 80005c8:	717b      	strb	r3, [r7, #5]
 80005ca:	2301      	movs	r3, #1
 80005cc:	71fb      	strb	r3, [r7, #7]
 80005ce:	f44f 5300 	mov.w	r3, #8192	; 0x2000
 80005d2:	603b      	str	r3, [r7, #0]
 80005d4:	463b      	mov	r3, r7
 80005d6:	4619      	mov	r1, r3
 80005d8:	480a      	ldr	r0, [pc, #40]	; (8000604 <BTNGPIO_Init+0x60>)
 80005da:	f000 fb7d 	bl	8000cd8 <GPIO_Init>
 80005de:	2339      	movs	r3, #57	; 0x39
 80005e0:	603b      	str	r3, [r7, #0]
 80005e2:	463b      	mov	r3, r7
 80005e4:	4619      	mov	r1, r3
 80005e6:	4808      	ldr	r0, [pc, #32]	; (8000608 <BTNGPIO_Init+0x64>)
 80005e8:	f000 fb76 	bl	8000cd8 <GPIO_Init>
 80005ec:	2310      	movs	r3, #16
 80005ee:	603b      	str	r3, [r7, #0]
 80005f0:	463b      	mov	r3, r7
 80005f2:	4619      	mov	r1, r3
 80005f4:	4805      	ldr	r0, [pc, #20]	; (800060c <BTNGPIO_Init+0x68>)
 80005f6:	f000 fb6f 	bl	8000cd8 <GPIO_Init>
 80005fa:	bf00      	nop
 80005fc:	3708      	adds	r7, #8
 80005fe:	46bd      	mov	sp, r7
 8000600:	bd80      	pop	{r7, pc}
 8000602:	bf00      	nop
 8000604:	40020800 	.word	0x40020800
 8000608:	40020400 	.word	0x40020400
 800060c:	40020000 	.word	0x40020000

08000610 <LedControl_Init>:
 8000610:	b580      	push	{r7, lr}
 8000612:	af00      	add	r7, sp, #0
 8000614:	f000 f914 	bl	8000840 <LEDGPIO_Config>
 8000618:	f000 f95c 	bl	80008d4 <LEDTIM_Config>
 800061c:	bf00      	nop
 800061e:	bd80      	pop	{r7, pc}

08000620 <LedControl_SetColorIndividual>:
 8000620:	b580      	push	{r7, lr}
 8000622:	b084      	sub	sp, #16
 8000624:	af00      	add	r7, sp, #0
 8000626:	4603      	mov	r3, r0
 8000628:	71fb      	strb	r3, [r7, #7]
 800062a:	460b      	mov	r3, r1
 800062c:	71bb      	strb	r3, [r7, #6]
 800062e:	4613      	mov	r3, r2
 8000630:	717b      	strb	r3, [r7, #5]
 8000632:	79fb      	ldrb	r3, [r7, #7]
 8000634:	2b02      	cmp	r3, #2
 8000636:	d85e      	bhi.n	80006f6 <LedControl_SetColorIndividual+0xd6>
 8000638:	79bb      	ldrb	r3, [r7, #6]
 800063a:	2b00      	cmp	r3, #0
 800063c:	d005      	beq.n	800064a <LedControl_SetColorIndividual+0x2a>
 800063e:	79bb      	ldrb	r3, [r7, #6]
 8000640:	2b01      	cmp	r3, #1
 8000642:	d002      	beq.n	800064a <LedControl_SetColorIndividual+0x2a>
 8000644:	79bb      	ldrb	r3, [r7, #6]
 8000646:	2b02      	cmp	r3, #2
 8000648:	d155      	bne.n	80006f6 <LedControl_SetColorIndividual+0xd6>
 800064a:	797b      	ldrb	r3, [r7, #5]
 800064c:	2b64      	cmp	r3, #100	; 0x64
 800064e:	d852      	bhi.n	80006f6 <LedControl_SetColorIndividual+0xd6>
 8000650:	797b      	ldrb	r3, [r7, #5]
 8000652:	2b00      	cmp	r3, #0
 8000654:	d103      	bne.n	800065e <LedControl_SetColorIndividual+0x3e>
 8000656:	4b2a      	ldr	r3, [pc, #168]	; (8000700 <LedControl_SetColorIndividual+0xe0>)
 8000658:	2264      	movs	r2, #100	; 0x64
 800065a:	701a      	strb	r2, [r3, #0]
 800065c:	e002      	b.n	8000664 <LedControl_SetColorIndividual+0x44>
 800065e:	4a28      	ldr	r2, [pc, #160]	; (8000700 <LedControl_SetColorIndividual+0xe0>)
 8000660:	797b      	ldrb	r3, [r7, #5]
 8000662:	7013      	strb	r3, [r2, #0]
 8000664:	797b      	ldrb	r3, [r7, #5]
 8000666:	4a27      	ldr	r2, [pc, #156]	; (8000704 <LedControl_SetColorIndividual+0xe4>)
 8000668:	6812      	ldr	r2, [r2, #0]
 800066a:	4927      	ldr	r1, [pc, #156]	; (8000708 <LedControl_SetColorIndividual+0xe8>)
 800066c:	fba1 1202 	umull	r1, r2, r1, r2
 8000670:	0b92      	lsrs	r2, r2, #14
 8000672:	3a02      	subs	r2, #2
 8000674:	fb02 f303 	mul.w	r3, r2, r3
 8000678:	4a24      	ldr	r2, [pc, #144]	; (800070c <LedControl_SetColorIndividual+0xec>)
 800067a:	fba2 2303 	umull	r2, r3, r2, r3
 800067e:	095b      	lsrs	r3, r3, #5
 8000680:	60fb      	str	r3, [r7, #12]
 8000682:	79fb      	ldrb	r3, [r7, #7]
 8000684:	2b00      	cmp	r3, #0
 8000686:	d10c      	bne.n	80006a2 <LedControl_SetColorIndividual+0x82>
 8000688:	797b      	ldrb	r3, [r7, #5]
 800068a:	2b00      	cmp	r3, #0
 800068c:	d004      	beq.n	8000698 <LedControl_SetColorIndividual+0x78>
 800068e:	2120      	movs	r1, #32
 8000690:	481f      	ldr	r0, [pc, #124]	; (8000710 <LedControl_SetColorIndividual+0xf0>)
 8000692:	f000 fbc9 	bl	8000e28 <GPIO_SetBits>
 8000696:	e02f      	b.n	80006f8 <LedControl_SetColorIndividual+0xd8>
 8000698:	2120      	movs	r1, #32
 800069a:	481d      	ldr	r0, [pc, #116]	; (8000710 <LedControl_SetColorIndividual+0xf0>)
 800069c:	f000 fbd3 	bl	8000e46 <GPIO_ResetBits>
 80006a0:	e02a      	b.n	80006f8 <LedControl_SetColorIndividual+0xd8>
 80006a2:	79fb      	ldrb	r3, [r7, #7]
 80006a4:	2b01      	cmp	r3, #1
 80006a6:	d114      	bne.n	80006d2 <LedControl_SetColorIndividual+0xb2>
 80006a8:	79bb      	ldrb	r3, [r7, #6]
 80006aa:	2b00      	cmp	r3, #0
 80006ac:	d104      	bne.n	80006b8 <LedControl_SetColorIndividual+0x98>
 80006ae:	68f9      	ldr	r1, [r7, #12]
 80006b0:	4818      	ldr	r0, [pc, #96]	; (8000714 <LedControl_SetColorIndividual+0xf4>)
 80006b2:	f000 fefd 	bl	80014b0 <TIM_SetCompare1>
 80006b6:	e01f      	b.n	80006f8 <LedControl_SetColorIndividual+0xd8>
 80006b8:	79bb      	ldrb	r3, [r7, #6]
 80006ba:	2b01      	cmp	r3, #1
 80006bc:	d104      	bne.n	80006c8 <LedControl_SetColorIndividual+0xa8>
 80006be:	68f9      	ldr	r1, [r7, #12]
 80006c0:	4814      	ldr	r0, [pc, #80]	; (8000714 <LedControl_SetColorIndividual+0xf4>)
 80006c2:	f000 ff1f 	bl	8001504 <TIM_SetCompare4>
 80006c6:	e017      	b.n	80006f8 <LedControl_SetColorIndividual+0xd8>
 80006c8:	68f9      	ldr	r1, [r7, #12]
 80006ca:	4812      	ldr	r0, [pc, #72]	; (8000714 <LedControl_SetColorIndividual+0xf4>)
 80006cc:	f000 ff0c 	bl	80014e8 <TIM_SetCompare3>
 80006d0:	e012      	b.n	80006f8 <LedControl_SetColorIndividual+0xd8>
 80006d2:	79bb      	ldrb	r3, [r7, #6]
 80006d4:	2b00      	cmp	r3, #0
 80006d6:	d105      	bne.n	80006e4 <LedControl_SetColorIndividual+0xc4>
 80006d8:	68f9      	ldr	r1, [r7, #12]
 80006da:	f04f 4080 	mov.w	r0, #1073741824	; 0x40000000
 80006de:	f000 fef5 	bl	80014cc <TIM_SetCompare2>
 80006e2:	e009      	b.n	80006f8 <LedControl_SetColorIndividual+0xd8>
 80006e4:	79bb      	ldrb	r3, [r7, #6]
 80006e6:	2b01      	cmp	r3, #1
 80006e8:	d106      	bne.n	80006f8 <LedControl_SetColorIndividual+0xd8>
 80006ea:	68f9      	ldr	r1, [r7, #12]
 80006ec:	f04f 4080 	mov.w	r0, #1073741824	; 0x40000000
 80006f0:	f000 fede 	bl	80014b0 <TIM_SetCompare1>
 80006f4:	e000      	b.n	80006f8 <LedControl_SetColorIndividual+0xd8>
 80006f6:	bf00      	nop
 80006f8:	3710      	adds	r7, #16
 80006fa:	46bd      	mov	sp, r7
 80006fc:	bd80      	pop	{r7, pc}
 80006fe:	bf00      	nop
 8000700:	200000dc 	.word	0x200000dc
 8000704:	20000034 	.word	0x20000034
 8000708:	eeb83a0d 	.word	0xeeb83a0d
 800070c:	51eb851f 	.word	0x51eb851f
 8000710:	40020000 	.word	0x40020000
 8000714:	40010000 	.word	0x40010000

08000718 <LedControl_SetColorGeneral>:
 8000718:	b580      	push	{r7, lr}
 800071a:	b082      	sub	sp, #8
 800071c:	af00      	add	r7, sp, #0
 800071e:	4603      	mov	r3, r0
 8000720:	71fb      	strb	r3, [r7, #7]
 8000722:	460b      	mov	r3, r1
 8000724:	71bb      	strb	r3, [r7, #6]
 8000726:	4613      	mov	r3, r2
 8000728:	717b      	strb	r3, [r7, #5]
 800072a:	79bb      	ldrb	r3, [r7, #6]
 800072c:	2b05      	cmp	r3, #5
 800072e:	f200 8081 	bhi.w	8000834 <LedControl_SetColorGeneral+0x11c>
 8000732:	a201      	add	r2, pc, #4	; (adr r2, 8000738 <LedControl_SetColorGeneral+0x20>)
 8000734:	f852 f023 	ldr.w	pc, [r2, r3, lsl #2]
 8000738:	08000751 	.word	0x08000751
 800073c:	08000777 	.word	0x08000777
 8000740:	0800079d 	.word	0x0800079d
 8000744:	080007c3 	.word	0x080007c3
 8000748:	0800080f 	.word	0x0800080f
 800074c:	080007e9 	.word	0x080007e9
 8000750:	797a      	ldrb	r2, [r7, #5]
 8000752:	79fb      	ldrb	r3, [r7, #7]
 8000754:	2100      	movs	r1, #0
 8000756:	4618      	mov	r0, r3
 8000758:	f7ff ff62 	bl	8000620 <LedControl_SetColorIndividual>
 800075c:	79fb      	ldrb	r3, [r7, #7]
 800075e:	2200      	movs	r2, #0
 8000760:	2102      	movs	r1, #2
 8000762:	4618      	mov	r0, r3
 8000764:	f7ff ff5c 	bl	8000620 <LedControl_SetColorIndividual>
 8000768:	79fb      	ldrb	r3, [r7, #7]
 800076a:	2200      	movs	r2, #0
 800076c:	2101      	movs	r1, #1
 800076e:	4618      	mov	r0, r3
 8000770:	f7ff ff56 	bl	8000620 <LedControl_SetColorIndividual>
 8000774:	e05f      	b.n	8000836 <LedControl_SetColorGeneral+0x11e>
 8000776:	797a      	ldrb	r2, [r7, #5]
 8000778:	79fb      	ldrb	r3, [r7, #7]
 800077a:	2101      	movs	r1, #1
 800077c:	4618      	mov	r0, r3
 800077e:	f7ff ff4f 	bl	8000620 <LedControl_SetColorIndividual>
 8000782:	79fb      	ldrb	r3, [r7, #7]
 8000784:	2200      	movs	r2, #0
 8000786:	2100      	movs	r1, #0
 8000788:	4618      	mov	r0, r3
 800078a:	f7ff ff49 	bl	8000620 <LedControl_SetColorIndividual>
 800078e:	79fb      	ldrb	r3, [r7, #7]
 8000790:	2200      	movs	r2, #0
 8000792:	2102      	movs	r1, #2
 8000794:	4618      	mov	r0, r3
 8000796:	f7ff ff43 	bl	8000620 <LedControl_SetColorIndividual>
 800079a:	e04c      	b.n	8000836 <LedControl_SetColorGeneral+0x11e>
 800079c:	797a      	ldrb	r2, [r7, #5]
 800079e:	79fb      	ldrb	r3, [r7, #7]
 80007a0:	2102      	movs	r1, #2
 80007a2:	4618      	mov	r0, r3
 80007a4:	f7ff ff3c 	bl	8000620 <LedControl_SetColorIndividual>
 80007a8:	79fb      	ldrb	r3, [r7, #7]
 80007aa:	2200      	movs	r2, #0
 80007ac:	2100      	movs	r1, #0
 80007ae:	4618      	mov	r0, r3
 80007b0:	f7ff ff36 	bl	8000620 <LedControl_SetColorIndividual>
 80007b4:	79fb      	ldrb	r3, [r7, #7]
 80007b6:	2200      	movs	r2, #0
 80007b8:	2101      	movs	r1, #1
 80007ba:	4618      	mov	r0, r3
 80007bc:	f7ff ff30 	bl	8000620 <LedControl_SetColorIndividual>
 80007c0:	e039      	b.n	8000836 <LedControl_SetColorGeneral+0x11e>
 80007c2:	797a      	ldrb	r2, [r7, #5]
 80007c4:	79fb      	ldrb	r3, [r7, #7]
 80007c6:	2102      	movs	r1, #2
 80007c8:	4618      	mov	r0, r3
 80007ca:	f7ff ff29 	bl	8000620 <LedControl_SetColorIndividual>
 80007ce:	797a      	ldrb	r2, [r7, #5]
 80007d0:	79fb      	ldrb	r3, [r7, #7]
 80007d2:	2100      	movs	r1, #0
 80007d4:	4618      	mov	r0, r3
 80007d6:	f7ff ff23 	bl	8000620 <LedControl_SetColorIndividual>
 80007da:	797a      	ldrb	r2, [r7, #5]
 80007dc:	79fb      	ldrb	r3, [r7, #7]
 80007de:	2101      	movs	r1, #1
 80007e0:	4618      	mov	r0, r3
 80007e2:	f7ff ff1d 	bl	8000620 <LedControl_SetColorIndividual>
 80007e6:	e026      	b.n	8000836 <LedControl_SetColorGeneral+0x11e>
 80007e8:	79fb      	ldrb	r3, [r7, #7]
 80007ea:	2200      	movs	r2, #0
 80007ec:	2102      	movs	r1, #2
 80007ee:	4618      	mov	r0, r3
 80007f0:	f7ff ff16 	bl	8000620 <LedControl_SetColorIndividual>
 80007f4:	797a      	ldrb	r2, [r7, #5]
 80007f6:	79fb      	ldrb	r3, [r7, #7]
 80007f8:	2100      	movs	r1, #0
 80007fa:	4618      	mov	r0, r3
 80007fc:	f7ff ff10 	bl	8000620 <LedControl_SetColorIndividual>
 8000800:	797a      	ldrb	r2, [r7, #5]
 8000802:	79fb      	ldrb	r3, [r7, #7]
 8000804:	2101      	movs	r1, #1
 8000806:	4618      	mov	r0, r3
 8000808:	f7ff ff0a 	bl	8000620 <LedControl_SetColorIndividual>
 800080c:	e013      	b.n	8000836 <LedControl_SetColorGeneral+0x11e>
 800080e:	79fb      	ldrb	r3, [r7, #7]
 8000810:	2200      	movs	r2, #0
 8000812:	2102      	movs	r1, #2
 8000814:	4618      	mov	r0, r3
 8000816:	f7ff ff03 	bl	8000620 <LedControl_SetColorIndividual>
 800081a:	79fb      	ldrb	r3, [r7, #7]
 800081c:	2200      	movs	r2, #0
 800081e:	2100      	movs	r1, #0
 8000820:	4618      	mov	r0, r3
 8000822:	f7ff fefd 	bl	8000620 <LedControl_SetColorIndividual>
 8000826:	79fb      	ldrb	r3, [r7, #7]
 8000828:	2200      	movs	r2, #0
 800082a:	2101      	movs	r1, #1
 800082c:	4618      	mov	r0, r3
 800082e:	f7ff fef7 	bl	8000620 <LedControl_SetColorIndividual>
 8000832:	e000      	b.n	8000836 <LedControl_SetColorGeneral+0x11e>
 8000834:	bf00      	nop
 8000836:	bf00      	nop
 8000838:	3708      	adds	r7, #8
 800083a:	46bd      	mov	sp, r7
 800083c:	bd80      	pop	{r7, pc}
 800083e:	bf00      	nop

08000840 <LEDGPIO_Config>:
 8000840:	b580      	push	{r7, lr}
 8000842:	b082      	sub	sp, #8
 8000844:	af00      	add	r7, sp, #0
 8000846:	2101      	movs	r1, #1
 8000848:	2003      	movs	r0, #3
 800084a:	f000 fb55 	bl	8000ef8 <RCC_AHB1PeriphClockCmd>
 800084e:	f640 4303 	movw	r3, #3075	; 0xc03
 8000852:	603b      	str	r3, [r7, #0]
 8000854:	2302      	movs	r3, #2
 8000856:	713b      	strb	r3, [r7, #4]
 8000858:	2303      	movs	r3, #3
 800085a:	717b      	strb	r3, [r7, #5]
 800085c:	2300      	movs	r3, #0
 800085e:	71bb      	strb	r3, [r7, #6]
 8000860:	2301      	movs	r3, #1
 8000862:	71fb      	strb	r3, [r7, #7]
 8000864:	463b      	mov	r3, r7
 8000866:	4619      	mov	r1, r3
 8000868:	4818      	ldr	r0, [pc, #96]	; (80008cc <LEDGPIO_Config+0x8c>)
 800086a:	f000 fa35 	bl	8000cd8 <GPIO_Init>
 800086e:	2201      	movs	r2, #1
 8000870:	2100      	movs	r1, #0
 8000872:	4816      	ldr	r0, [pc, #88]	; (80008cc <LEDGPIO_Config+0x8c>)
 8000874:	f000 faf6 	bl	8000e64 <GPIO_PinAFConfig>
 8000878:	2201      	movs	r2, #1
 800087a:	2101      	movs	r1, #1
 800087c:	4813      	ldr	r0, [pc, #76]	; (80008cc <LEDGPIO_Config+0x8c>)
 800087e:	f000 faf1 	bl	8000e64 <GPIO_PinAFConfig>
 8000882:	2201      	movs	r2, #1
 8000884:	210b      	movs	r1, #11
 8000886:	4811      	ldr	r0, [pc, #68]	; (80008cc <LEDGPIO_Config+0x8c>)
 8000888:	f000 faec 	bl	8000e64 <GPIO_PinAFConfig>
 800088c:	2201      	movs	r2, #1
 800088e:	210a      	movs	r1, #10
 8000890:	480e      	ldr	r0, [pc, #56]	; (80008cc <LEDGPIO_Config+0x8c>)
 8000892:	f000 fae7 	bl	8000e64 <GPIO_PinAFConfig>
 8000896:	f44f 5300 	mov.w	r3, #8192	; 0x2000
 800089a:	603b      	str	r3, [r7, #0]
 800089c:	463b      	mov	r3, r7
 800089e:	4619      	mov	r1, r3
 80008a0:	480b      	ldr	r0, [pc, #44]	; (80008d0 <LEDGPIO_Config+0x90>)
 80008a2:	f000 fa19 	bl	8000cd8 <GPIO_Init>
 80008a6:	2201      	movs	r2, #1
 80008a8:	210d      	movs	r1, #13
 80008aa:	4809      	ldr	r0, [pc, #36]	; (80008d0 <LEDGPIO_Config+0x90>)
 80008ac:	f000 fada 	bl	8000e64 <GPIO_PinAFConfig>
 80008b0:	2320      	movs	r3, #32
 80008b2:	603b      	str	r3, [r7, #0]
 80008b4:	2301      	movs	r3, #1
 80008b6:	713b      	strb	r3, [r7, #4]
 80008b8:	463b      	mov	r3, r7
 80008ba:	4619      	mov	r1, r3
 80008bc:	4803      	ldr	r0, [pc, #12]	; (80008cc <LEDGPIO_Config+0x8c>)
 80008be:	f000 fa0b 	bl	8000cd8 <GPIO_Init>
 80008c2:	bf00      	nop
 80008c4:	3708      	adds	r7, #8
 80008c6:	46bd      	mov	sp, r7
 80008c8:	bd80      	pop	{r7, pc}
 80008ca:	bf00      	nop
 80008cc:	40020000 	.word	0x40020000
 80008d0:	40020400 	.word	0x40020400

080008d4 <LEDTIM_Config>:
 80008d4:	b580      	push	{r7, lr}
 80008d6:	b08a      	sub	sp, #40	; 0x28
 80008d8:	af00      	add	r7, sp, #0
 80008da:	2300      	movs	r3, #0
 80008dc:	84fb      	strh	r3, [r7, #38]	; 0x26
 80008de:	2300      	movs	r3, #0
 80008e0:	84fb      	strh	r3, [r7, #38]	; 0x26
 80008e2:	2101      	movs	r1, #1
 80008e4:	2001      	movs	r0, #1
 80008e6:	f000 fb47 	bl	8000f78 <RCC_APB2PeriphClockCmd>
 80008ea:	2101      	movs	r1, #1
 80008ec:	2001      	movs	r0, #1
 80008ee:	f000 fb23 	bl	8000f38 <RCC_APB1PeriphClockCmd>
 80008f2:	2300      	movs	r3, #0
 80008f4:	833b      	strh	r3, [r7, #24]
 80008f6:	2300      	movs	r3, #0
 80008f8:	837b      	strh	r3, [r7, #26]
 80008fa:	4b2e      	ldr	r3, [pc, #184]	; (80009b4 <LEDTIM_Config+0xe0>)
 80008fc:	681b      	ldr	r3, [r3, #0]
 80008fe:	4a2e      	ldr	r2, [pc, #184]	; (80009b8 <LEDTIM_Config+0xe4>)
 8000900:	fba2 2303 	umull	r2, r3, r2, r3
 8000904:	0b9b      	lsrs	r3, r3, #14
 8000906:	3b01      	subs	r3, #1
 8000908:	61fb      	str	r3, [r7, #28]
 800090a:	2300      	movs	r3, #0
 800090c:	843b      	strh	r3, [r7, #32]
 800090e:	2300      	movs	r3, #0
 8000910:	f887 3022 	strb.w	r3, [r7, #34]	; 0x22
 8000914:	f107 0318 	add.w	r3, r7, #24
 8000918:	4619      	mov	r1, r3
 800091a:	4828      	ldr	r0, [pc, #160]	; (80009bc <LEDTIM_Config+0xe8>)
 800091c:	f000 fb4c 	bl	8000fb8 <TIM_TimeBaseInit>
 8000920:	f107 0318 	add.w	r3, r7, #24
 8000924:	4619      	mov	r1, r3
 8000926:	f04f 4080 	mov.w	r0, #1073741824	; 0x40000000
 800092a:	f000 fb45 	bl	8000fb8 <TIM_TimeBaseInit>
 800092e:	2370      	movs	r3, #112	; 0x70
 8000930:	80bb      	strh	r3, [r7, #4]
 8000932:	2301      	movs	r3, #1
 8000934:	80fb      	strh	r3, [r7, #6]
 8000936:	2304      	movs	r3, #4
 8000938:	813b      	strh	r3, [r7, #8]
 800093a:	8cfb      	ldrh	r3, [r7, #38]	; 0x26
 800093c:	60fb      	str	r3, [r7, #12]
 800093e:	2302      	movs	r3, #2
 8000940:	823b      	strh	r3, [r7, #16]
 8000942:	2300      	movs	r3, #0
 8000944:	827b      	strh	r3, [r7, #18]
 8000946:	f44f 7380 	mov.w	r3, #256	; 0x100
 800094a:	82bb      	strh	r3, [r7, #20]
 800094c:	2300      	movs	r3, #0
 800094e:	82fb      	strh	r3, [r7, #22]
 8000950:	1d3b      	adds	r3, r7, #4
 8000952:	4619      	mov	r1, r3
 8000954:	4819      	ldr	r0, [pc, #100]	; (80009bc <LEDTIM_Config+0xe8>)
 8000956:	f000 fbbb 	bl	80010d0 <TIM_OC1Init>
 800095a:	1d3b      	adds	r3, r7, #4
 800095c:	4619      	mov	r1, r3
 800095e:	4817      	ldr	r0, [pc, #92]	; (80009bc <LEDTIM_Config+0xe8>)
 8000960:	f000 fcb8 	bl	80012d4 <TIM_OC3Init>
 8000964:	1d3b      	adds	r3, r7, #4
 8000966:	4619      	mov	r1, r3
 8000968:	4814      	ldr	r0, [pc, #80]	; (80009bc <LEDTIM_Config+0xe8>)
 800096a:	f000 fd39 	bl	80013e0 <TIM_OC4Init>
 800096e:	1d3b      	adds	r3, r7, #4
 8000970:	4619      	mov	r1, r3
 8000972:	f04f 4080 	mov.w	r0, #1073741824	; 0x40000000
 8000976:	f000 fbab 	bl	80010d0 <TIM_OC1Init>
 800097a:	1d3b      	adds	r3, r7, #4
 800097c:	4619      	mov	r1, r3
 800097e:	f04f 4080 	mov.w	r0, #1073741824	; 0x40000000
 8000982:	f000 fc1f 	bl	80011c4 <TIM_OC2Init>
 8000986:	2101      	movs	r1, #1
 8000988:	480c      	ldr	r0, [pc, #48]	; (80009bc <LEDTIM_Config+0xe8>)
 800098a:	f000 fb81 	bl	8001090 <TIM_Cmd>
 800098e:	2101      	movs	r1, #1
 8000990:	f04f 4080 	mov.w	r0, #1073741824	; 0x40000000
 8000994:	f000 fb7c 	bl	8001090 <TIM_Cmd>
 8000998:	2101      	movs	r1, #1
 800099a:	4808      	ldr	r0, [pc, #32]	; (80009bc <LEDTIM_Config+0xe8>)
 800099c:	f000 fdc0 	bl	8001520 <TIM_CtrlPWMOutputs>
 80009a0:	2101      	movs	r1, #1
 80009a2:	f04f 4080 	mov.w	r0, #1073741824	; 0x40000000
 80009a6:	f000 fdbb 	bl	8001520 <TIM_CtrlPWMOutputs>
 80009aa:	bf00      	nop
 80009ac:	3728      	adds	r7, #40	; 0x28
 80009ae:	46bd      	mov	sp, r7
 80009b0:	bd80      	pop	{r7, pc}
 80009b2:	bf00      	nop
 80009b4:	20000034 	.word	0x20000034
 80009b8:	eeb83a0d 	.word	0xeeb83a0d
 80009bc:	40010000 	.word	0x40010000

080009c0 <TimerStart>:
 80009c0:	b590      	push	{r4, r7, lr}
 80009c2:	b087      	sub	sp, #28
 80009c4:	af00      	add	r7, sp, #0
 80009c6:	60f8      	str	r0, [r7, #12]
 80009c8:	60b9      	str	r1, [r7, #8]
 80009ca:	603b      	str	r3, [r7, #0]
 80009cc:	4613      	mov	r3, r2
 80009ce:	71fb      	strb	r3, [r7, #7]
 80009d0:	2300      	movs	r3, #0
 80009d2:	75fb      	strb	r3, [r7, #23]
 80009d4:	e04c      	b.n	8000a70 <TimerStart+0xb0>
 80009d6:	7dfa      	ldrb	r2, [r7, #23]
 80009d8:	4929      	ldr	r1, [pc, #164]	; (8000a80 <TimerStart+0xc0>)
 80009da:	4613      	mov	r3, r2
 80009dc:	005b      	lsls	r3, r3, #1
 80009de:	4413      	add	r3, r2
 80009e0:	00db      	lsls	r3, r3, #3
 80009e2:	440b      	add	r3, r1
 80009e4:	3310      	adds	r3, #16
 80009e6:	681b      	ldr	r3, [r3, #0]
 80009e8:	2b00      	cmp	r3, #0
 80009ea:	d13e      	bne.n	8000a6a <TimerStart+0xaa>
 80009ec:	7dfa      	ldrb	r2, [r7, #23]
 80009ee:	4924      	ldr	r1, [pc, #144]	; (8000a80 <TimerStart+0xc0>)
 80009f0:	4613      	mov	r3, r2
 80009f2:	005b      	lsls	r3, r3, #1
 80009f4:	4413      	add	r3, r2
 80009f6:	00db      	lsls	r3, r3, #3
 80009f8:	440b      	add	r3, r1
 80009fa:	68fa      	ldr	r2, [r7, #12]
 80009fc:	601a      	str	r2, [r3, #0]
 80009fe:	7dfa      	ldrb	r2, [r7, #23]
 8000a00:	491f      	ldr	r1, [pc, #124]	; (8000a80 <TimerStart+0xc0>)
 8000a02:	4613      	mov	r3, r2
 8000a04:	005b      	lsls	r3, r3, #1
 8000a06:	4413      	add	r3, r2
 8000a08:	00db      	lsls	r3, r3, #3
 8000a0a:	440b      	add	r3, r1
 8000a0c:	3310      	adds	r3, #16
 8000a0e:	683a      	ldr	r2, [r7, #0]
 8000a10:	601a      	str	r2, [r3, #0]
 8000a12:	7dfa      	ldrb	r2, [r7, #23]
 8000a14:	491a      	ldr	r1, [pc, #104]	; (8000a80 <TimerStart+0xc0>)
 8000a16:	4613      	mov	r3, r2
 8000a18:	005b      	lsls	r3, r3, #1
 8000a1a:	4413      	add	r3, r2
 8000a1c:	00db      	lsls	r3, r3, #3
 8000a1e:	440b      	add	r3, r1
 8000a20:	330c      	adds	r3, #12
 8000a22:	79fa      	ldrb	r2, [r7, #7]
 8000a24:	701a      	strb	r2, [r3, #0]
 8000a26:	7dfa      	ldrb	r2, [r7, #23]
 8000a28:	4915      	ldr	r1, [pc, #84]	; (8000a80 <TimerStart+0xc0>)
 8000a2a:	4613      	mov	r3, r2
 8000a2c:	005b      	lsls	r3, r3, #1
 8000a2e:	4413      	add	r3, r2
 8000a30:	00db      	lsls	r3, r3, #3
 8000a32:	440b      	add	r3, r1
 8000a34:	3314      	adds	r3, #20
 8000a36:	6aba      	ldr	r2, [r7, #40]	; 0x28
 8000a38:	601a      	str	r2, [r3, #0]
 8000a3a:	7dfc      	ldrb	r4, [r7, #23]
 8000a3c:	f000 f822 	bl	8000a84 <GetMilSecTick>
 8000a40:	4601      	mov	r1, r0
 8000a42:	4a0f      	ldr	r2, [pc, #60]	; (8000a80 <TimerStart+0xc0>)
 8000a44:	4623      	mov	r3, r4
 8000a46:	005b      	lsls	r3, r3, #1
 8000a48:	4423      	add	r3, r4
 8000a4a:	00db      	lsls	r3, r3, #3
 8000a4c:	4413      	add	r3, r2
 8000a4e:	3304      	adds	r3, #4
 8000a50:	6019      	str	r1, [r3, #0]
 8000a52:	7dfa      	ldrb	r2, [r7, #23]
 8000a54:	490a      	ldr	r1, [pc, #40]	; (8000a80 <TimerStart+0xc0>)
 8000a56:	4613      	mov	r3, r2
 8000a58:	005b      	lsls	r3, r3, #1
 8000a5a:	4413      	add	r3, r2
 8000a5c:	00db      	lsls	r3, r3, #3
 8000a5e:	440b      	add	r3, r1
 8000a60:	3308      	adds	r3, #8
 8000a62:	68ba      	ldr	r2, [r7, #8]
 8000a64:	601a      	str	r2, [r3, #0]
 8000a66:	7dfb      	ldrb	r3, [r7, #23]
 8000a68:	e006      	b.n	8000a78 <TimerStart+0xb8>
 8000a6a:	7dfb      	ldrb	r3, [r7, #23]
 8000a6c:	3301      	adds	r3, #1
 8000a6e:	75fb      	strb	r3, [r7, #23]
 8000a70:	7dfb      	ldrb	r3, [r7, #23]
 8000a72:	2b0f      	cmp	r3, #15
 8000a74:	d9af      	bls.n	80009d6 <TimerStart+0x16>
 8000a76:	23ff      	movs	r3, #255	; 0xff
 8000a78:	4618      	mov	r0, r3
 8000a7a:	371c      	adds	r7, #28
 8000a7c:	46bd      	mov	sp, r7
 8000a7e:	bd90      	pop	{r4, r7, pc}
 8000a80:	200000e0 	.word	0x200000e0

08000a84 <GetMilSecTick>:
 8000a84:	b480      	push	{r7}
 8000a86:	af00      	add	r7, sp, #0
 8000a88:	4b03      	ldr	r3, [pc, #12]	; (8000a98 <GetMilSecTick+0x14>)
 8000a8a:	681b      	ldr	r3, [r3, #0]
 8000a8c:	4618      	mov	r0, r3
 8000a8e:	46bd      	mov	sp, r7
 8000a90:	f85d 7b04 	ldr.w	r7, [sp], #4
 8000a94:	4770      	bx	lr
 8000a96:	bf00      	nop
 8000a98:	20000260 	.word	0x20000260

08000a9c <SysTick_Handler>:
 8000a9c:	b480      	push	{r7}
 8000a9e:	af00      	add	r7, sp, #0
 8000aa0:	4b04      	ldr	r3, [pc, #16]	; (8000ab4 <SysTick_Handler+0x18>)
 8000aa2:	681b      	ldr	r3, [r3, #0]
 8000aa4:	3301      	adds	r3, #1
 8000aa6:	4a03      	ldr	r2, [pc, #12]	; (8000ab4 <SysTick_Handler+0x18>)
 8000aa8:	6013      	str	r3, [r2, #0]
 8000aaa:	bf00      	nop
 8000aac:	46bd      	mov	sp, r7
 8000aae:	f85d 7b04 	ldr.w	r7, [sp], #4
 8000ab2:	4770      	bx	lr
 8000ab4:	20000260 	.word	0x20000260

08000ab8 <USART2_IRQHandler>:
 8000ab8:	b580      	push	{r7, lr}
 8000aba:	b082      	sub	sp, #8
 8000abc:	af00      	add	r7, sp, #0
 8000abe:	b672      	cpsid	i
 8000ac0:	f240 5125 	movw	r1, #1317	; 0x525
 8000ac4:	480e      	ldr	r0, [pc, #56]	; (8000b00 <USART2_IRQHandler+0x48>)
 8000ac6:	f000 fd61 	bl	800158c <USART_GetITStatus>
 8000aca:	4603      	mov	r3, r0
 8000acc:	2b01      	cmp	r3, #1
 8000ace:	d112      	bne.n	8000af6 <USART2_IRQHandler+0x3e>
 8000ad0:	4b0c      	ldr	r3, [pc, #48]	; (8000b04 <USART2_IRQHandler+0x4c>)
 8000ad2:	681b      	ldr	r3, [r3, #0]
 8000ad4:	607b      	str	r3, [r7, #4]
 8000ad6:	480a      	ldr	r0, [pc, #40]	; (8000b00 <USART2_IRQHandler+0x48>)
 8000ad8:	f000 fd48 	bl	800156c <USART_ReceiveData>
 8000adc:	4603      	mov	r3, r0
 8000ade:	b2db      	uxtb	r3, r3
 8000ae0:	70fb      	strb	r3, [r7, #3]
 8000ae2:	1cfb      	adds	r3, r7, #3
 8000ae4:	4619      	mov	r1, r3
 8000ae6:	6878      	ldr	r0, [r7, #4]
 8000ae8:	f000 f821 	bl	8000b2e <bufEnDat>
 8000aec:	f240 5125 	movw	r1, #1317	; 0x525
 8000af0:	4803      	ldr	r0, [pc, #12]	; (8000b00 <USART2_IRQHandler+0x48>)
 8000af2:	f000 fda6 	bl	8001642 <USART_ClearITPendingBit>
 8000af6:	b662      	cpsie	i
 8000af8:	bf00      	nop
 8000afa:	3708      	adds	r7, #8
 8000afc:	46bd      	mov	sp, r7
 8000afe:	bd80      	pop	{r7, pc}
 8000b00:	40004400 	.word	0x40004400
 8000b04:	20000264 	.word	0x20000264

08000b08 <bufIsFull>:
 8000b08:	b480      	push	{r7}
 8000b0a:	b083      	sub	sp, #12
 8000b0c:	af00      	add	r7, sp, #0
 8000b0e:	6078      	str	r0, [r7, #4]
 8000b10:	687b      	ldr	r3, [r7, #4]
 8000b12:	885a      	ldrh	r2, [r3, #2]
 8000b14:	687b      	ldr	r3, [r7, #4]
 8000b16:	881b      	ldrh	r3, [r3, #0]
 8000b18:	429a      	cmp	r2, r3
 8000b1a:	bf2c      	ite	cs
 8000b1c:	2301      	movcs	r3, #1
 8000b1e:	2300      	movcc	r3, #0
 8000b20:	b2db      	uxtb	r3, r3
 8000b22:	4618      	mov	r0, r3
 8000b24:	370c      	adds	r7, #12
 8000b26:	46bd      	mov	sp, r7
 8000b28:	f85d 7b04 	ldr.w	r7, [sp], #4
 8000b2c:	4770      	bx	lr

08000b2e <bufEnDat>:
 8000b2e:	b580      	push	{r7, lr}
 8000b30:	b084      	sub	sp, #16
 8000b32:	af00      	add	r7, sp, #0
 8000b34:	6078      	str	r0, [r7, #4]
 8000b36:	6039      	str	r1, [r7, #0]
 8000b38:	b672      	cpsid	i
 8000b3a:	2300      	movs	r3, #0
 8000b3c:	73fb      	strb	r3, [r7, #15]
 8000b3e:	e021      	b.n	8000b84 <bufEnDat+0x56>
 8000b40:	7bfb      	ldrb	r3, [r7, #15]
 8000b42:	683a      	ldr	r2, [r7, #0]
 8000b44:	441a      	add	r2, r3
 8000b46:	687b      	ldr	r3, [r7, #4]
 8000b48:	68db      	ldr	r3, [r3, #12]
 8000b4a:	6879      	ldr	r1, [r7, #4]
 8000b4c:	88c9      	ldrh	r1, [r1, #6]
 8000b4e:	440b      	add	r3, r1
 8000b50:	7812      	ldrb	r2, [r2, #0]
 8000b52:	701a      	strb	r2, [r3, #0]
 8000b54:	687b      	ldr	r3, [r7, #4]
 8000b56:	88db      	ldrh	r3, [r3, #6]
 8000b58:	3301      	adds	r3, #1
 8000b5a:	b29b      	uxth	r3, r3
 8000b5c:	b21a      	sxth	r2, r3
 8000b5e:	687b      	ldr	r3, [r7, #4]
 8000b60:	881b      	ldrh	r3, [r3, #0]
 8000b62:	3b01      	subs	r3, #1
 8000b64:	b29b      	uxth	r3, r3
 8000b66:	b21b      	sxth	r3, r3
 8000b68:	4013      	ands	r3, r2
 8000b6a:	b21b      	sxth	r3, r3
 8000b6c:	b29a      	uxth	r2, r3
 8000b6e:	687b      	ldr	r3, [r7, #4]
 8000b70:	80da      	strh	r2, [r3, #6]
 8000b72:	687b      	ldr	r3, [r7, #4]
 8000b74:	885b      	ldrh	r3, [r3, #2]
 8000b76:	3301      	adds	r3, #1
 8000b78:	b29a      	uxth	r2, r3
 8000b7a:	687b      	ldr	r3, [r7, #4]
 8000b7c:	805a      	strh	r2, [r3, #2]
 8000b7e:	7bfb      	ldrb	r3, [r7, #15]
 8000b80:	3301      	adds	r3, #1
 8000b82:	73fb      	strb	r3, [r7, #15]
 8000b84:	687b      	ldr	r3, [r7, #4]
 8000b86:	791b      	ldrb	r3, [r3, #4]
 8000b88:	7bfa      	ldrb	r2, [r7, #15]
 8000b8a:	429a      	cmp	r2, r3
 8000b8c:	d3d8      	bcc.n	8000b40 <bufEnDat+0x12>
 8000b8e:	6878      	ldr	r0, [r7, #4]
 8000b90:	f7ff ffba 	bl	8000b08 <bufIsFull>
 8000b94:	4603      	mov	r3, r0
 8000b96:	2b00      	cmp	r3, #0
 8000b98:	d011      	beq.n	8000bbe <bufEnDat+0x90>
 8000b9a:	687b      	ldr	r3, [r7, #4]
 8000b9c:	891a      	ldrh	r2, [r3, #8]
 8000b9e:	687b      	ldr	r3, [r7, #4]
 8000ba0:	791b      	ldrb	r3, [r3, #4]
 8000ba2:	b29b      	uxth	r3, r3
 8000ba4:	4413      	add	r3, r2
 8000ba6:	b29b      	uxth	r3, r3
 8000ba8:	b21a      	sxth	r2, r3
 8000baa:	687b      	ldr	r3, [r7, #4]
 8000bac:	881b      	ldrh	r3, [r3, #0]
 8000bae:	3b01      	subs	r3, #1
 8000bb0:	b29b      	uxth	r3, r3
 8000bb2:	b21b      	sxth	r3, r3
 8000bb4:	4013      	ands	r3, r2
 8000bb6:	b21b      	sxth	r3, r3
 8000bb8:	b29a      	uxth	r2, r3
 8000bba:	687b      	ldr	r3, [r7, #4]
 8000bbc:	811a      	strh	r2, [r3, #8]
 8000bbe:	b662      	cpsie	i
 8000bc0:	2300      	movs	r3, #0
 8000bc2:	4618      	mov	r0, r3
 8000bc4:	3710      	adds	r7, #16
 8000bc6:	46bd      	mov	sp, r7
 8000bc8:	bd80      	pop	{r7, pc}
	...

08000bcc <SystemInit>:
 8000bcc:	b580      	push	{r7, lr}
 8000bce:	af00      	add	r7, sp, #0
 8000bd0:	4b16      	ldr	r3, [pc, #88]	; (8000c2c <SystemInit+0x60>)
 8000bd2:	f8d3 3088 	ldr.w	r3, [r3, #136]	; 0x88
 8000bd6:	4a15      	ldr	r2, [pc, #84]	; (8000c2c <SystemInit+0x60>)
 8000bd8:	f443 0370 	orr.w	r3, r3, #15728640	; 0xf00000
 8000bdc:	f8c2 3088 	str.w	r3, [r2, #136]	; 0x88
 8000be0:	4b13      	ldr	r3, [pc, #76]	; (8000c30 <SystemInit+0x64>)
 8000be2:	681b      	ldr	r3, [r3, #0]
 8000be4:	4a12      	ldr	r2, [pc, #72]	; (8000c30 <SystemInit+0x64>)
 8000be6:	f043 0301 	orr.w	r3, r3, #1
 8000bea:	6013      	str	r3, [r2, #0]
 8000bec:	4b10      	ldr	r3, [pc, #64]	; (8000c30 <SystemInit+0x64>)
 8000bee:	2200      	movs	r2, #0
 8000bf0:	609a      	str	r2, [r3, #8]
 8000bf2:	4b0f      	ldr	r3, [pc, #60]	; (8000c30 <SystemInit+0x64>)
 8000bf4:	681b      	ldr	r3, [r3, #0]
 8000bf6:	4a0e      	ldr	r2, [pc, #56]	; (8000c30 <SystemInit+0x64>)
 8000bf8:	f023 7384 	bic.w	r3, r3, #17301504	; 0x1080000
 8000bfc:	f423 3380 	bic.w	r3, r3, #65536	; 0x10000
 8000c00:	6013      	str	r3, [r2, #0]
 8000c02:	4b0b      	ldr	r3, [pc, #44]	; (8000c30 <SystemInit+0x64>)
 8000c04:	4a0b      	ldr	r2, [pc, #44]	; (8000c34 <SystemInit+0x68>)
 8000c06:	605a      	str	r2, [r3, #4]
 8000c08:	4b09      	ldr	r3, [pc, #36]	; (8000c30 <SystemInit+0x64>)
 8000c0a:	681b      	ldr	r3, [r3, #0]
 8000c0c:	4a08      	ldr	r2, [pc, #32]	; (8000c30 <SystemInit+0x64>)
 8000c0e:	f423 2380 	bic.w	r3, r3, #262144	; 0x40000
 8000c12:	6013      	str	r3, [r2, #0]
 8000c14:	4b06      	ldr	r3, [pc, #24]	; (8000c30 <SystemInit+0x64>)
 8000c16:	2200      	movs	r2, #0
 8000c18:	60da      	str	r2, [r3, #12]
 8000c1a:	f000 f80d 	bl	8000c38 <SetSysClock>
 8000c1e:	4b03      	ldr	r3, [pc, #12]	; (8000c2c <SystemInit+0x60>)
 8000c20:	f04f 6200 	mov.w	r2, #134217728	; 0x8000000
 8000c24:	609a      	str	r2, [r3, #8]
 8000c26:	bf00      	nop
 8000c28:	bd80      	pop	{r7, pc}
 8000c2a:	bf00      	nop
 8000c2c:	e000ed00 	.word	0xe000ed00
 8000c30:	40023800 	.word	0x40023800
 8000c34:	24003010 	.word	0x24003010

08000c38 <SetSysClock>:
 8000c38:	b480      	push	{r7}
 8000c3a:	af00      	add	r7, sp, #0
 8000c3c:	4b22      	ldr	r3, [pc, #136]	; (8000cc8 <SetSysClock+0x90>)
 8000c3e:	6c1b      	ldr	r3, [r3, #64]	; 0x40
 8000c40:	4a21      	ldr	r2, [pc, #132]	; (8000cc8 <SetSysClock+0x90>)
 8000c42:	f043 5380 	orr.w	r3, r3, #268435456	; 0x10000000
 8000c46:	6413      	str	r3, [r2, #64]	; 0x40
 8000c48:	4b20      	ldr	r3, [pc, #128]	; (8000ccc <SetSysClock+0x94>)
 8000c4a:	681b      	ldr	r3, [r3, #0]
 8000c4c:	4a1f      	ldr	r2, [pc, #124]	; (8000ccc <SetSysClock+0x94>)
 8000c4e:	f443 4340 	orr.w	r3, r3, #49152	; 0xc000
 8000c52:	6013      	str	r3, [r2, #0]
 8000c54:	4b1c      	ldr	r3, [pc, #112]	; (8000cc8 <SetSysClock+0x90>)
 8000c56:	4a1c      	ldr	r2, [pc, #112]	; (8000cc8 <SetSysClock+0x90>)
 8000c58:	689b      	ldr	r3, [r3, #8]
 8000c5a:	6093      	str	r3, [r2, #8]
 8000c5c:	4b1a      	ldr	r3, [pc, #104]	; (8000cc8 <SetSysClock+0x90>)
 8000c5e:	4a1a      	ldr	r2, [pc, #104]	; (8000cc8 <SetSysClock+0x90>)
 8000c60:	689b      	ldr	r3, [r3, #8]
 8000c62:	6093      	str	r3, [r2, #8]
 8000c64:	4b18      	ldr	r3, [pc, #96]	; (8000cc8 <SetSysClock+0x90>)
 8000c66:	689b      	ldr	r3, [r3, #8]
 8000c68:	4a17      	ldr	r2, [pc, #92]	; (8000cc8 <SetSysClock+0x90>)
 8000c6a:	f443 5380 	orr.w	r3, r3, #4096	; 0x1000
 8000c6e:	6093      	str	r3, [r2, #8]
 8000c70:	4b15      	ldr	r3, [pc, #84]	; (8000cc8 <SetSysClock+0x90>)
 8000c72:	4a17      	ldr	r2, [pc, #92]	; (8000cd0 <SetSysClock+0x98>)
 8000c74:	605a      	str	r2, [r3, #4]
 8000c76:	4b14      	ldr	r3, [pc, #80]	; (8000cc8 <SetSysClock+0x90>)
 8000c78:	681b      	ldr	r3, [r3, #0]
 8000c7a:	4a13      	ldr	r2, [pc, #76]	; (8000cc8 <SetSysClock+0x90>)
 8000c7c:	f043 7380 	orr.w	r3, r3, #16777216	; 0x1000000
 8000c80:	6013      	str	r3, [r2, #0]
 8000c82:	bf00      	nop
 8000c84:	4b10      	ldr	r3, [pc, #64]	; (8000cc8 <SetSysClock+0x90>)
 8000c86:	681b      	ldr	r3, [r3, #0]
 8000c88:	f003 7300 	and.w	r3, r3, #33554432	; 0x2000000
 8000c8c:	2b00      	cmp	r3, #0
 8000c8e:	d0f9      	beq.n	8000c84 <SetSysClock+0x4c>
 8000c90:	4b10      	ldr	r3, [pc, #64]	; (8000cd4 <SetSysClock+0x9c>)
 8000c92:	f240 6202 	movw	r2, #1538	; 0x602
 8000c96:	601a      	str	r2, [r3, #0]
 8000c98:	4b0b      	ldr	r3, [pc, #44]	; (8000cc8 <SetSysClock+0x90>)
 8000c9a:	689b      	ldr	r3, [r3, #8]
 8000c9c:	4a0a      	ldr	r2, [pc, #40]	; (8000cc8 <SetSysClock+0x90>)
 8000c9e:	f023 0303 	bic.w	r3, r3, #3
 8000ca2:	6093      	str	r3, [r2, #8]
 8000ca4:	4b08      	ldr	r3, [pc, #32]	; (8000cc8 <SetSysClock+0x90>)
 8000ca6:	689b      	ldr	r3, [r3, #8]
 8000ca8:	4a07      	ldr	r2, [pc, #28]	; (8000cc8 <SetSysClock+0x90>)
 8000caa:	f043 0302 	orr.w	r3, r3, #2
 8000cae:	6093      	str	r3, [r2, #8]
 8000cb0:	bf00      	nop
 8000cb2:	4b05      	ldr	r3, [pc, #20]	; (8000cc8 <SetSysClock+0x90>)
 8000cb4:	689b      	ldr	r3, [r3, #8]
 8000cb6:	f003 030c 	and.w	r3, r3, #12
 8000cba:	2b08      	cmp	r3, #8
 8000cbc:	d1f9      	bne.n	8000cb2 <SetSysClock+0x7a>
 8000cbe:	bf00      	nop
 8000cc0:	46bd      	mov	sp, r7
 8000cc2:	f85d 7b04 	ldr.w	r7, [sp], #4
 8000cc6:	4770      	bx	lr
 8000cc8:	40023800 	.word	0x40023800
 8000ccc:	40007000 	.word	0x40007000
 8000cd0:	08015410 	.word	0x08015410
 8000cd4:	40023c00 	.word	0x40023c00

08000cd8 <GPIO_Init>:
 8000cd8:	b480      	push	{r7}
 8000cda:	b087      	sub	sp, #28
 8000cdc:	af00      	add	r7, sp, #0
 8000cde:	6078      	str	r0, [r7, #4]
 8000ce0:	6039      	str	r1, [r7, #0]
 8000ce2:	2300      	movs	r3, #0
 8000ce4:	617b      	str	r3, [r7, #20]
 8000ce6:	2300      	movs	r3, #0
 8000ce8:	613b      	str	r3, [r7, #16]
 8000cea:	2300      	movs	r3, #0
 8000cec:	60fb      	str	r3, [r7, #12]
 8000cee:	2300      	movs	r3, #0
 8000cf0:	617b      	str	r3, [r7, #20]
 8000cf2:	e076      	b.n	8000de2 <GPIO_Init+0x10a>
 8000cf4:	2201      	movs	r2, #1
 8000cf6:	697b      	ldr	r3, [r7, #20]
 8000cf8:	fa02 f303 	lsl.w	r3, r2, r3
 8000cfc:	613b      	str	r3, [r7, #16]
 8000cfe:	683b      	ldr	r3, [r7, #0]
 8000d00:	681b      	ldr	r3, [r3, #0]
 8000d02:	693a      	ldr	r2, [r7, #16]
 8000d04:	4013      	ands	r3, r2
 8000d06:	60fb      	str	r3, [r7, #12]
 8000d08:	68fa      	ldr	r2, [r7, #12]
 8000d0a:	693b      	ldr	r3, [r7, #16]
 8000d0c:	429a      	cmp	r2, r3
 8000d0e:	d165      	bne.n	8000ddc <GPIO_Init+0x104>
 8000d10:	687b      	ldr	r3, [r7, #4]
 8000d12:	681a      	ldr	r2, [r3, #0]
 8000d14:	697b      	ldr	r3, [r7, #20]
 8000d16:	005b      	lsls	r3, r3, #1
 8000d18:	2103      	movs	r1, #3
 8000d1a:	fa01 f303 	lsl.w	r3, r1, r3
 8000d1e:	43db      	mvns	r3, r3
 8000d20:	401a      	ands	r2, r3
 8000d22:	687b      	ldr	r3, [r7, #4]
 8000d24:	601a      	str	r2, [r3, #0]
 8000d26:	687b      	ldr	r3, [r7, #4]
 8000d28:	681a      	ldr	r2, [r3, #0]
 8000d2a:	683b      	ldr	r3, [r7, #0]
 8000d2c:	791b      	ldrb	r3, [r3, #4]
 8000d2e:	4619      	mov	r1, r3
 8000d30:	697b      	ldr	r3, [r7, #20]
 8000d32:	005b      	lsls	r3, r3, #1
 8000d34:	fa01 f303 	lsl.w	r3, r1, r3
 8000d38:	431a      	orrs	r2, r3
 8000d3a:	687b      	ldr	r3, [r7, #4]
 8000d3c:	601a      	str	r2, [r3, #0]
 8000d3e:	683b      	ldr	r3, [r7, #0]
 8000d40:	791b      	ldrb	r3, [r3, #4]
 8000d42:	2b01      	cmp	r3, #1
 8000d44:	d003      	beq.n	8000d4e <GPIO_Init+0x76>
 8000d46:	683b      	ldr	r3, [r7, #0]
 8000d48:	791b      	ldrb	r3, [r3, #4]
 8000d4a:	2b02      	cmp	r3, #2
 8000d4c:	d12e      	bne.n	8000dac <GPIO_Init+0xd4>
 8000d4e:	687b      	ldr	r3, [r7, #4]
 8000d50:	689a      	ldr	r2, [r3, #8]
 8000d52:	697b      	ldr	r3, [r7, #20]
 8000d54:	005b      	lsls	r3, r3, #1
 8000d56:	2103      	movs	r1, #3
 8000d58:	fa01 f303 	lsl.w	r3, r1, r3
 8000d5c:	43db      	mvns	r3, r3
 8000d5e:	401a      	ands	r2, r3
 8000d60:	687b      	ldr	r3, [r7, #4]
 8000d62:	609a      	str	r2, [r3, #8]
 8000d64:	687b      	ldr	r3, [r7, #4]
 8000d66:	689a      	ldr	r2, [r3, #8]
 8000d68:	683b      	ldr	r3, [r7, #0]
 8000d6a:	795b      	ldrb	r3, [r3, #5]
 8000d6c:	4619      	mov	r1, r3
 8000d6e:	697b      	ldr	r3, [r7, #20]
 8000d70:	005b      	lsls	r3, r3, #1
 8000d72:	fa01 f303 	lsl.w	r3, r1, r3
 8000d76:	431a      	orrs	r2, r3
 8000d78:	687b      	ldr	r3, [r7, #4]
 8000d7a:	609a      	str	r2, [r3, #8]
 8000d7c:	687b      	ldr	r3, [r7, #4]
 8000d7e:	685a      	ldr	r2, [r3, #4]
 8000d80:	697b      	ldr	r3, [r7, #20]
 8000d82:	b29b      	uxth	r3, r3
 8000d84:	4619      	mov	r1, r3
 8000d86:	2301      	movs	r3, #1
 8000d88:	408b      	lsls	r3, r1
 8000d8a:	43db      	mvns	r3, r3
 8000d8c:	401a      	ands	r2, r3
 8000d8e:	687b      	ldr	r3, [r7, #4]
 8000d90:	605a      	str	r2, [r3, #4]
 8000d92:	687b      	ldr	r3, [r7, #4]
 8000d94:	685b      	ldr	r3, [r3, #4]
 8000d96:	683a      	ldr	r2, [r7, #0]
 8000d98:	7992      	ldrb	r2, [r2, #6]
 8000d9a:	4611      	mov	r1, r2
 8000d9c:	697a      	ldr	r2, [r7, #20]
 8000d9e:	b292      	uxth	r2, r2
 8000da0:	fa01 f202 	lsl.w	r2, r1, r2
 8000da4:	b292      	uxth	r2, r2
 8000da6:	431a      	orrs	r2, r3
 8000da8:	687b      	ldr	r3, [r7, #4]
 8000daa:	605a      	str	r2, [r3, #4]
 8000dac:	687b      	ldr	r3, [r7, #4]
 8000dae:	68da      	ldr	r2, [r3, #12]
 8000db0:	697b      	ldr	r3, [r7, #20]
 8000db2:	b29b      	uxth	r3, r3
 8000db4:	005b      	lsls	r3, r3, #1
 8000db6:	2103      	movs	r1, #3
 8000db8:	fa01 f303 	lsl.w	r3, r1, r3
 8000dbc:	43db      	mvns	r3, r3
 8000dbe:	401a      	ands	r2, r3
 8000dc0:	687b      	ldr	r3, [r7, #4]
 8000dc2:	60da      	str	r2, [r3, #12]
 8000dc4:	687b      	ldr	r3, [r7, #4]
 8000dc6:	68da      	ldr	r2, [r3, #12]
 8000dc8:	683b      	ldr	r3, [r7, #0]
 8000dca:	79db      	ldrb	r3, [r3, #7]
 8000dcc:	4619      	mov	r1, r3
 8000dce:	697b      	ldr	r3, [r7, #20]
 8000dd0:	005b      	lsls	r3, r3, #1
 8000dd2:	fa01 f303 	lsl.w	r3, r1, r3
 8000dd6:	431a      	orrs	r2, r3
 8000dd8:	687b      	ldr	r3, [r7, #4]
 8000dda:	60da      	str	r2, [r3, #12]
 8000ddc:	697b      	ldr	r3, [r7, #20]
 8000dde:	3301      	adds	r3, #1
 8000de0:	617b      	str	r3, [r7, #20]
 8000de2:	697b      	ldr	r3, [r7, #20]
 8000de4:	2b0f      	cmp	r3, #15
 8000de6:	d985      	bls.n	8000cf4 <GPIO_Init+0x1c>
 8000de8:	bf00      	nop
 8000dea:	371c      	adds	r7, #28
 8000dec:	46bd      	mov	sp, r7
 8000dee:	f85d 7b04 	ldr.w	r7, [sp], #4
 8000df2:	4770      	bx	lr

08000df4 <GPIO_ReadInputDataBit>:
 8000df4:	b480      	push	{r7}
 8000df6:	b085      	sub	sp, #20
 8000df8:	af00      	add	r7, sp, #0
 8000dfa:	6078      	str	r0, [r7, #4]
 8000dfc:	460b      	mov	r3, r1
 8000dfe:	807b      	strh	r3, [r7, #2]
 8000e00:	2300      	movs	r3, #0
 8000e02:	73fb      	strb	r3, [r7, #15]
 8000e04:	687b      	ldr	r3, [r7, #4]
 8000e06:	691a      	ldr	r2, [r3, #16]
 8000e08:	887b      	ldrh	r3, [r7, #2]
 8000e0a:	4013      	ands	r3, r2
 8000e0c:	2b00      	cmp	r3, #0
 8000e0e:	d002      	beq.n	8000e16 <GPIO_ReadInputDataBit+0x22>
 8000e10:	2301      	movs	r3, #1
 8000e12:	73fb      	strb	r3, [r7, #15]
 8000e14:	e001      	b.n	8000e1a <GPIO_ReadInputDataBit+0x26>
 8000e16:	2300      	movs	r3, #0
 8000e18:	73fb      	strb	r3, [r7, #15]
 8000e1a:	7bfb      	ldrb	r3, [r7, #15]
 8000e1c:	4618      	mov	r0, r3
 8000e1e:	3714      	adds	r7, #20
 8000e20:	46bd      	mov	sp, r7
 8000e22:	f85d 7b04 	ldr.w	r7, [sp], #4
 8000e26:	4770      	bx	lr

08000e28 <GPIO_SetBits>:
 8000e28:	b480      	push	{r7}
 8000e2a:	b083      	sub	sp, #12
 8000e2c:	af00      	add	r7, sp, #0
 8000e2e:	6078      	str	r0, [r7, #4]
 8000e30:	460b      	mov	r3, r1
 8000e32:	807b      	strh	r3, [r7, #2]
 8000e34:	687b      	ldr	r3, [r7, #4]
 8000e36:	887a      	ldrh	r2, [r7, #2]
 8000e38:	831a      	strh	r2, [r3, #24]
 8000e3a:	bf00      	nop
 8000e3c:	370c      	adds	r7, #12
 8000e3e:	46bd      	mov	sp, r7
 8000e40:	f85d 7b04 	ldr.w	r7, [sp], #4
 8000e44:	4770      	bx	lr

08000e46 <GPIO_ResetBits>:
 8000e46:	b480      	push	{r7}
 8000e48:	b083      	sub	sp, #12
 8000e4a:	af00      	add	r7, sp, #0
 8000e4c:	6078      	str	r0, [r7, #4]
 8000e4e:	460b      	mov	r3, r1
 8000e50:	807b      	strh	r3, [r7, #2]
 8000e52:	687b      	ldr	r3, [r7, #4]
 8000e54:	887a      	ldrh	r2, [r7, #2]
 8000e56:	835a      	strh	r2, [r3, #26]
 8000e58:	bf00      	nop
 8000e5a:	370c      	adds	r7, #12
 8000e5c:	46bd      	mov	sp, r7
 8000e5e:	f85d 7b04 	ldr.w	r7, [sp], #4
 8000e62:	4770      	bx	lr

08000e64 <GPIO_PinAFConfig>:
 8000e64:	b480      	push	{r7}
 8000e66:	b085      	sub	sp, #20
 8000e68:	af00      	add	r7, sp, #0
 8000e6a:	6078      	str	r0, [r7, #4]
 8000e6c:	460b      	mov	r3, r1
 8000e6e:	807b      	strh	r3, [r7, #2]
 8000e70:	4613      	mov	r3, r2
 8000e72:	707b      	strb	r3, [r7, #1]
 8000e74:	2300      	movs	r3, #0
 8000e76:	60fb      	str	r3, [r7, #12]
 8000e78:	2300      	movs	r3, #0
 8000e7a:	60bb      	str	r3, [r7, #8]
 8000e7c:	787a      	ldrb	r2, [r7, #1]
 8000e7e:	887b      	ldrh	r3, [r7, #2]
 8000e80:	f003 0307 	and.w	r3, r3, #7
 8000e84:	009b      	lsls	r3, r3, #2
 8000e86:	fa02 f303 	lsl.w	r3, r2, r3
 8000e8a:	60fb      	str	r3, [r7, #12]
 8000e8c:	887b      	ldrh	r3, [r7, #2]
 8000e8e:	08db      	lsrs	r3, r3, #3
 8000e90:	b29b      	uxth	r3, r3
 8000e92:	461a      	mov	r2, r3
 8000e94:	687b      	ldr	r3, [r7, #4]
 8000e96:	3208      	adds	r2, #8
 8000e98:	f853 2022 	ldr.w	r2, [r3, r2, lsl #2]
 8000e9c:	887b      	ldrh	r3, [r7, #2]
 8000e9e:	f003 0307 	and.w	r3, r3, #7
 8000ea2:	009b      	lsls	r3, r3, #2
 8000ea4:	210f      	movs	r1, #15
 8000ea6:	fa01 f303 	lsl.w	r3, r1, r3
 8000eaa:	43db      	mvns	r3, r3
 8000eac:	8879      	ldrh	r1, [r7, #2]
 8000eae:	08c9      	lsrs	r1, r1, #3
 8000eb0:	b289      	uxth	r1, r1
 8000eb2:	4608      	mov	r0, r1
 8000eb4:	ea02 0103 	and.w	r1, r2, r3
 8000eb8:	687b      	ldr	r3, [r7, #4]
 8000eba:	f100 0208 	add.w	r2, r0, #8
 8000ebe:	f843 1022 	str.w	r1, [r3, r2, lsl #2]
 8000ec2:	887b      	ldrh	r3, [r7, #2]
 8000ec4:	08db      	lsrs	r3, r3, #3
 8000ec6:	b29b      	uxth	r3, r3
 8000ec8:	461a      	mov	r2, r3
 8000eca:	687b      	ldr	r3, [r7, #4]
 8000ecc:	3208      	adds	r2, #8
 8000ece:	f853 3022 	ldr.w	r3, [r3, r2, lsl #2]
 8000ed2:	68fa      	ldr	r2, [r7, #12]
 8000ed4:	4313      	orrs	r3, r2
 8000ed6:	60bb      	str	r3, [r7, #8]
 8000ed8:	887b      	ldrh	r3, [r7, #2]
 8000eda:	08db      	lsrs	r3, r3, #3
 8000edc:	b29b      	uxth	r3, r3
 8000ede:	461a      	mov	r2, r3
 8000ee0:	687b      	ldr	r3, [r7, #4]
 8000ee2:	3208      	adds	r2, #8
 8000ee4:	68b9      	ldr	r1, [r7, #8]
 8000ee6:	f843 1022 	str.w	r1, [r3, r2, lsl #2]
 8000eea:	bf00      	nop
 8000eec:	3714      	adds	r7, #20
 8000eee:	46bd      	mov	sp, r7
 8000ef0:	f85d 7b04 	ldr.w	r7, [sp], #4
 8000ef4:	4770      	bx	lr
	...

08000ef8 <RCC_AHB1PeriphClockCmd>:
 8000ef8:	b480      	push	{r7}
 8000efa:	b083      	sub	sp, #12
 8000efc:	af00      	add	r7, sp, #0
 8000efe:	6078      	str	r0, [r7, #4]
 8000f00:	460b      	mov	r3, r1
 8000f02:	70fb      	strb	r3, [r7, #3]
 8000f04:	78fb      	ldrb	r3, [r7, #3]
 8000f06:	2b00      	cmp	r3, #0
 8000f08:	d006      	beq.n	8000f18 <RCC_AHB1PeriphClockCmd+0x20>
 8000f0a:	4b0a      	ldr	r3, [pc, #40]	; (8000f34 <RCC_AHB1PeriphClockCmd+0x3c>)
 8000f0c:	6b1a      	ldr	r2, [r3, #48]	; 0x30
 8000f0e:	4909      	ldr	r1, [pc, #36]	; (8000f34 <RCC_AHB1PeriphClockCmd+0x3c>)
 8000f10:	687b      	ldr	r3, [r7, #4]
 8000f12:	4313      	orrs	r3, r2
 8000f14:	630b      	str	r3, [r1, #48]	; 0x30
 8000f16:	e006      	b.n	8000f26 <RCC_AHB1PeriphClockCmd+0x2e>
 8000f18:	4b06      	ldr	r3, [pc, #24]	; (8000f34 <RCC_AHB1PeriphClockCmd+0x3c>)
 8000f1a:	6b1a      	ldr	r2, [r3, #48]	; 0x30
 8000f1c:	687b      	ldr	r3, [r7, #4]
 8000f1e:	43db      	mvns	r3, r3
 8000f20:	4904      	ldr	r1, [pc, #16]	; (8000f34 <RCC_AHB1PeriphClockCmd+0x3c>)
 8000f22:	4013      	ands	r3, r2
 8000f24:	630b      	str	r3, [r1, #48]	; 0x30
 8000f26:	bf00      	nop
 8000f28:	370c      	adds	r7, #12
 8000f2a:	46bd      	mov	sp, r7
 8000f2c:	f85d 7b04 	ldr.w	r7, [sp], #4
 8000f30:	4770      	bx	lr
 8000f32:	bf00      	nop
 8000f34:	40023800 	.word	0x40023800

08000f38 <RCC_APB1PeriphClockCmd>:
 8000f38:	b480      	push	{r7}
 8000f3a:	b083      	sub	sp, #12
 8000f3c:	af00      	add	r7, sp, #0
 8000f3e:	6078      	str	r0, [r7, #4]
 8000f40:	460b      	mov	r3, r1
 8000f42:	70fb      	strb	r3, [r7, #3]
 8000f44:	78fb      	ldrb	r3, [r7, #3]
 8000f46:	2b00      	cmp	r3, #0
 8000f48:	d006      	beq.n	8000f58 <RCC_APB1PeriphClockCmd+0x20>
 8000f4a:	4b0a      	ldr	r3, [pc, #40]	; (8000f74 <RCC_APB1PeriphClockCmd+0x3c>)
 8000f4c:	6c1a      	ldr	r2, [r3, #64]	; 0x40
 8000f4e:	4909      	ldr	r1, [pc, #36]	; (8000f74 <RCC_APB1PeriphClockCmd+0x3c>)
 8000f50:	687b      	ldr	r3, [r7, #4]
 8000f52:	4313      	orrs	r3, r2
 8000f54:	640b      	str	r3, [r1, #64]	; 0x40
 8000f56:	e006      	b.n	8000f66 <RCC_APB1PeriphClockCmd+0x2e>
 8000f58:	4b06      	ldr	r3, [pc, #24]	; (8000f74 <RCC_APB1PeriphClockCmd+0x3c>)
 8000f5a:	6c1a      	ldr	r2, [r3, #64]	; 0x40
 8000f5c:	687b      	ldr	r3, [r7, #4]
 8000f5e:	43db      	mvns	r3, r3
 8000f60:	4904      	ldr	r1, [pc, #16]	; (8000f74 <RCC_APB1PeriphClockCmd+0x3c>)
 8000f62:	4013      	ands	r3, r2
 8000f64:	640b      	str	r3, [r1, #64]	; 0x40
 8000f66:	bf00      	nop
 8000f68:	370c      	adds	r7, #12
 8000f6a:	46bd      	mov	sp, r7
 8000f6c:	f85d 7b04 	ldr.w	r7, [sp], #4
 8000f70:	4770      	bx	lr
 8000f72:	bf00      	nop
 8000f74:	40023800 	.word	0x40023800

08000f78 <RCC_APB2PeriphClockCmd>:
 8000f78:	b480      	push	{r7}
 8000f7a:	b083      	sub	sp, #12
 8000f7c:	af00      	add	r7, sp, #0
 8000f7e:	6078      	str	r0, [r7, #4]
 8000f80:	460b      	mov	r3, r1
 8000f82:	70fb      	strb	r3, [r7, #3]
 8000f84:	78fb      	ldrb	r3, [r7, #3]
 8000f86:	2b00      	cmp	r3, #0
 8000f88:	d006      	beq.n	8000f98 <RCC_APB2PeriphClockCmd+0x20>
 8000f8a:	4b0a      	ldr	r3, [pc, #40]	; (8000fb4 <RCC_APB2PeriphClockCmd+0x3c>)
 8000f8c:	6c5a      	ldr	r2, [r3, #68]	; 0x44
 8000f8e:	4909      	ldr	r1, [pc, #36]	; (8000fb4 <RCC_APB2PeriphClockCmd+0x3c>)
 8000f90:	687b      	ldr	r3, [r7, #4]
 8000f92:	4313      	orrs	r3, r2
 8000f94:	644b      	str	r3, [r1, #68]	; 0x44
 8000f96:	e006      	b.n	8000fa6 <RCC_APB2PeriphClockCmd+0x2e>
 8000f98:	4b06      	ldr	r3, [pc, #24]	; (8000fb4 <RCC_APB2PeriphClockCmd+0x3c>)
 8000f9a:	6c5a      	ldr	r2, [r3, #68]	; 0x44
 8000f9c:	687b      	ldr	r3, [r7, #4]
 8000f9e:	43db      	mvns	r3, r3
 8000fa0:	4904      	ldr	r1, [pc, #16]	; (8000fb4 <RCC_APB2PeriphClockCmd+0x3c>)
 8000fa2:	4013      	ands	r3, r2
 8000fa4:	644b      	str	r3, [r1, #68]	; 0x44
 8000fa6:	bf00      	nop
 8000fa8:	370c      	adds	r7, #12
 8000faa:	46bd      	mov	sp, r7
 8000fac:	f85d 7b04 	ldr.w	r7, [sp], #4
 8000fb0:	4770      	bx	lr
 8000fb2:	bf00      	nop
 8000fb4:	40023800 	.word	0x40023800

08000fb8 <TIM_TimeBaseInit>:
 8000fb8:	b480      	push	{r7}
 8000fba:	b085      	sub	sp, #20
 8000fbc:	af00      	add	r7, sp, #0
 8000fbe:	6078      	str	r0, [r7, #4]
 8000fc0:	6039      	str	r1, [r7, #0]
 8000fc2:	2300      	movs	r3, #0
 8000fc4:	81fb      	strh	r3, [r7, #14]
 8000fc6:	687b      	ldr	r3, [r7, #4]
 8000fc8:	881b      	ldrh	r3, [r3, #0]
 8000fca:	81fb      	strh	r3, [r7, #14]
 8000fcc:	687b      	ldr	r3, [r7, #4]
 8000fce:	4a29      	ldr	r2, [pc, #164]	; (8001074 <TIM_TimeBaseInit+0xbc>)
 8000fd0:	4293      	cmp	r3, r2
 8000fd2:	d013      	beq.n	8000ffc <TIM_TimeBaseInit+0x44>
 8000fd4:	687b      	ldr	r3, [r7, #4]
 8000fd6:	4a28      	ldr	r2, [pc, #160]	; (8001078 <TIM_TimeBaseInit+0xc0>)
 8000fd8:	4293      	cmp	r3, r2
 8000fda:	d00f      	beq.n	8000ffc <TIM_TimeBaseInit+0x44>
 8000fdc:	687b      	ldr	r3, [r7, #4]
 8000fde:	f1b3 4f80 	cmp.w	r3, #1073741824	; 0x40000000
 8000fe2:	d00b      	beq.n	8000ffc <TIM_TimeBaseInit+0x44>
 8000fe4:	687b      	ldr	r3, [r7, #4]
 8000fe6:	4a25      	ldr	r2, [pc, #148]	; (800107c <TIM_TimeBaseInit+0xc4>)
 8000fe8:	4293      	cmp	r3, r2
 8000fea:	d007      	beq.n	8000ffc <TIM_TimeBaseInit+0x44>
 8000fec:	687b      	ldr	r3, [r7, #4]
 8000fee:	4a24      	ldr	r2, [pc, #144]	; (8001080 <TIM_TimeBaseInit+0xc8>)
 8000ff0:	4293      	cmp	r3, r2
 8000ff2:	d003      	beq.n	8000ffc <TIM_TimeBaseInit+0x44>
 8000ff4:	687b      	ldr	r3, [r7, #4]
 8000ff6:	4a23      	ldr	r2, [pc, #140]	; (8001084 <TIM_TimeBaseInit+0xcc>)
 8000ff8:	4293      	cmp	r3, r2
 8000ffa:	d108      	bne.n	800100e <TIM_TimeBaseInit+0x56>
 8000ffc:	89fb      	ldrh	r3, [r7, #14]
 8000ffe:	f023 0370 	bic.w	r3, r3, #112	; 0x70
 8001002:	81fb      	strh	r3, [r7, #14]
 8001004:	683b      	ldr	r3, [r7, #0]
 8001006:	885a      	ldrh	r2, [r3, #2]
 8001008:	89fb      	ldrh	r3, [r7, #14]
 800100a:	4313      	orrs	r3, r2
 800100c:	81fb      	strh	r3, [r7, #14]
 800100e:	687b      	ldr	r3, [r7, #4]
 8001010:	4a1d      	ldr	r2, [pc, #116]	; (8001088 <TIM_TimeBaseInit+0xd0>)
 8001012:	4293      	cmp	r3, r2
 8001014:	d00c      	beq.n	8001030 <TIM_TimeBaseInit+0x78>
 8001016:	687b      	ldr	r3, [r7, #4]
 8001018:	4a1c      	ldr	r2, [pc, #112]	; (800108c <TIM_TimeBaseInit+0xd4>)
 800101a:	4293      	cmp	r3, r2
 800101c:	d008      	beq.n	8001030 <TIM_TimeBaseInit+0x78>
 800101e:	89fb      	ldrh	r3, [r7, #14]
 8001020:	f423 7340 	bic.w	r3, r3, #768	; 0x300
 8001024:	81fb      	strh	r3, [r7, #14]
 8001026:	683b      	ldr	r3, [r7, #0]
 8001028:	891a      	ldrh	r2, [r3, #8]
 800102a:	89fb      	ldrh	r3, [r7, #14]
 800102c:	4313      	orrs	r3, r2
 800102e:	81fb      	strh	r3, [r7, #14]
 8001030:	687b      	ldr	r3, [r7, #4]
 8001032:	89fa      	ldrh	r2, [r7, #14]
 8001034:	801a      	strh	r2, [r3, #0]
 8001036:	683b      	ldr	r3, [r7, #0]
 8001038:	685a      	ldr	r2, [r3, #4]
 800103a:	687b      	ldr	r3, [r7, #4]
 800103c:	62da      	str	r2, [r3, #44]	; 0x2c
 800103e:	683b      	ldr	r3, [r7, #0]
 8001040:	881a      	ldrh	r2, [r3, #0]
 8001042:	687b      	ldr	r3, [r7, #4]
 8001044:	851a      	strh	r2, [r3, #40]	; 0x28
 8001046:	687b      	ldr	r3, [r7, #4]
 8001048:	4a0a      	ldr	r2, [pc, #40]	; (8001074 <TIM_TimeBaseInit+0xbc>)
 800104a:	4293      	cmp	r3, r2
 800104c:	d003      	beq.n	8001056 <TIM_TimeBaseInit+0x9e>
 800104e:	687b      	ldr	r3, [r7, #4]
 8001050:	4a09      	ldr	r2, [pc, #36]	; (8001078 <TIM_TimeBaseInit+0xc0>)
 8001052:	4293      	cmp	r3, r2
 8001054:	d104      	bne.n	8001060 <TIM_TimeBaseInit+0xa8>
 8001056:	683b      	ldr	r3, [r7, #0]
 8001058:	7a9b      	ldrb	r3, [r3, #10]
 800105a:	b29a      	uxth	r2, r3
 800105c:	687b      	ldr	r3, [r7, #4]
 800105e:	861a      	strh	r2, [r3, #48]	; 0x30
 8001060:	687b      	ldr	r3, [r7, #4]
 8001062:	2201      	movs	r2, #1
 8001064:	829a      	strh	r2, [r3, #20]
 8001066:	bf00      	nop
 8001068:	3714      	adds	r7, #20
 800106a:	46bd      	mov	sp, r7
 800106c:	f85d 7b04 	ldr.w	r7, [sp], #4
 8001070:	4770      	bx	lr
 8001072:	bf00      	nop
 8001074:	40010000 	.word	0x40010000
 8001078:	40010400 	.word	0x40010400
 800107c:	40000400 	.word	0x40000400
 8001080:	40000800 	.word	0x40000800
 8001084:	40000c00 	.word	0x40000c00
 8001088:	40001000 	.word	0x40001000
 800108c:	40001400 	.word	0x40001400

08001090 <TIM_Cmd>:
 8001090:	b480      	push	{r7}
 8001092:	b083      	sub	sp, #12
 8001094:	af00      	add	r7, sp, #0
 8001096:	6078      	str	r0, [r7, #4]
 8001098:	460b      	mov	r3, r1
 800109a:	70fb      	strb	r3, [r7, #3]
 800109c:	78fb      	ldrb	r3, [r7, #3]
 800109e:	2b00      	cmp	r3, #0
 80010a0:	d008      	beq.n	80010b4 <TIM_Cmd+0x24>
 80010a2:	687b      	ldr	r3, [r7, #4]
 80010a4:	881b      	ldrh	r3, [r3, #0]
 80010a6:	b29b      	uxth	r3, r3
 80010a8:	f043 0301 	orr.w	r3, r3, #1
 80010ac:	b29a      	uxth	r2, r3
 80010ae:	687b      	ldr	r3, [r7, #4]
 80010b0:	801a      	strh	r2, [r3, #0]
 80010b2:	e007      	b.n	80010c4 <TIM_Cmd+0x34>
 80010b4:	687b      	ldr	r3, [r7, #4]
 80010b6:	881b      	ldrh	r3, [r3, #0]
 80010b8:	b29b      	uxth	r3, r3
 80010ba:	f023 0301 	bic.w	r3, r3, #1
 80010be:	b29a      	uxth	r2, r3
 80010c0:	687b      	ldr	r3, [r7, #4]
 80010c2:	801a      	strh	r2, [r3, #0]
 80010c4:	bf00      	nop
 80010c6:	370c      	adds	r7, #12
 80010c8:	46bd      	mov	sp, r7
 80010ca:	f85d 7b04 	ldr.w	r7, [sp], #4
 80010ce:	4770      	bx	lr

080010d0 <TIM_OC1Init>:
 80010d0:	b480      	push	{r7}
 80010d2:	b085      	sub	sp, #20
 80010d4:	af00      	add	r7, sp, #0
 80010d6:	6078      	str	r0, [r7, #4]
 80010d8:	6039      	str	r1, [r7, #0]
 80010da:	2300      	movs	r3, #0
 80010dc:	817b      	strh	r3, [r7, #10]
 80010de:	2300      	movs	r3, #0
 80010e0:	81fb      	strh	r3, [r7, #14]
 80010e2:	2300      	movs	r3, #0
 80010e4:	81bb      	strh	r3, [r7, #12]
 80010e6:	687b      	ldr	r3, [r7, #4]
 80010e8:	8c1b      	ldrh	r3, [r3, #32]
 80010ea:	b29b      	uxth	r3, r3
 80010ec:	f023 0301 	bic.w	r3, r3, #1
 80010f0:	b29a      	uxth	r2, r3
 80010f2:	687b      	ldr	r3, [r7, #4]
 80010f4:	841a      	strh	r2, [r3, #32]
 80010f6:	687b      	ldr	r3, [r7, #4]
 80010f8:	8c1b      	ldrh	r3, [r3, #32]
 80010fa:	81fb      	strh	r3, [r7, #14]
 80010fc:	687b      	ldr	r3, [r7, #4]
 80010fe:	889b      	ldrh	r3, [r3, #4]
 8001100:	81bb      	strh	r3, [r7, #12]
 8001102:	687b      	ldr	r3, [r7, #4]
 8001104:	8b1b      	ldrh	r3, [r3, #24]
 8001106:	817b      	strh	r3, [r7, #10]
 8001108:	897b      	ldrh	r3, [r7, #10]
 800110a:	f023 0370 	bic.w	r3, r3, #112	; 0x70
 800110e:	817b      	strh	r3, [r7, #10]
 8001110:	897b      	ldrh	r3, [r7, #10]
 8001112:	f023 0303 	bic.w	r3, r3, #3
 8001116:	817b      	strh	r3, [r7, #10]
 8001118:	683b      	ldr	r3, [r7, #0]
 800111a:	881a      	ldrh	r2, [r3, #0]
 800111c:	897b      	ldrh	r3, [r7, #10]
 800111e:	4313      	orrs	r3, r2
 8001120:	817b      	strh	r3, [r7, #10]
 8001122:	89fb      	ldrh	r3, [r7, #14]
 8001124:	f023 0302 	bic.w	r3, r3, #2
 8001128:	81fb      	strh	r3, [r7, #14]
 800112a:	683b      	ldr	r3, [r7, #0]
 800112c:	899a      	ldrh	r2, [r3, #12]
 800112e:	89fb      	ldrh	r3, [r7, #14]
 8001130:	4313      	orrs	r3, r2
 8001132:	81fb      	strh	r3, [r7, #14]
 8001134:	683b      	ldr	r3, [r7, #0]
 8001136:	885a      	ldrh	r2, [r3, #2]
 8001138:	89fb      	ldrh	r3, [r7, #14]
 800113a:	4313      	orrs	r3, r2
 800113c:	81fb      	strh	r3, [r7, #14]
 800113e:	687b      	ldr	r3, [r7, #4]
 8001140:	4a1e      	ldr	r2, [pc, #120]	; (80011bc <TIM_OC1Init+0xec>)
 8001142:	4293      	cmp	r3, r2
 8001144:	d003      	beq.n	800114e <TIM_OC1Init+0x7e>
 8001146:	687b      	ldr	r3, [r7, #4]
 8001148:	4a1d      	ldr	r2, [pc, #116]	; (80011c0 <TIM_OC1Init+0xf0>)
 800114a:	4293      	cmp	r3, r2
 800114c:	d123      	bne.n	8001196 <TIM_OC1Init+0xc6>
 800114e:	89fb      	ldrh	r3, [r7, #14]
 8001150:	f023 0308 	bic.w	r3, r3, #8
 8001154:	81fb      	strh	r3, [r7, #14]
 8001156:	683b      	ldr	r3, [r7, #0]
 8001158:	89da      	ldrh	r2, [r3, #14]
 800115a:	89fb      	ldrh	r3, [r7, #14]
 800115c:	4313      	orrs	r3, r2
 800115e:	81fb      	strh	r3, [r7, #14]
 8001160:	89fb      	ldrh	r3, [r7, #14]
 8001162:	f023 0304 	bic.w	r3, r3, #4
 8001166:	81fb      	strh	r3, [r7, #14]
 8001168:	683b      	ldr	r3, [r7, #0]
 800116a:	889a      	ldrh	r2, [r3, #4]
 800116c:	89fb      	ldrh	r3, [r7, #14]
 800116e:	4313      	orrs	r3, r2
 8001170:	81fb      	strh	r3, [r7, #14]
 8001172:	89bb      	ldrh	r3, [r7, #12]
 8001174:	f423 7380 	bic.w	r3, r3, #256	; 0x100
 8001178:	81bb      	strh	r3, [r7, #12]
 800117a:	89bb      	ldrh	r3, [r7, #12]
 800117c:	f423 7300 	bic.w	r3, r3, #512	; 0x200
 8001180:	81bb      	strh	r3, [r7, #12]
 8001182:	683b      	ldr	r3, [r7, #0]
 8001184:	8a1a      	ldrh	r2, [r3, #16]
 8001186:	89bb      	ldrh	r3, [r7, #12]
 8001188:	4313      	orrs	r3, r2
 800118a:	81bb      	strh	r3, [r7, #12]
 800118c:	683b      	ldr	r3, [r7, #0]
 800118e:	8a5a      	ldrh	r2, [r3, #18]
 8001190:	89bb      	ldrh	r3, [r7, #12]
 8001192:	4313      	orrs	r3, r2
 8001194:	81bb      	strh	r3, [r7, #12]
 8001196:	687b      	ldr	r3, [r7, #4]
 8001198:	89ba      	ldrh	r2, [r7, #12]
 800119a:	809a      	strh	r2, [r3, #4]
 800119c:	687b      	ldr	r3, [r7, #4]
 800119e:	897a      	ldrh	r2, [r7, #10]
 80011a0:	831a      	strh	r2, [r3, #24]
 80011a2:	683b      	ldr	r3, [r7, #0]
 80011a4:	689a      	ldr	r2, [r3, #8]
 80011a6:	687b      	ldr	r3, [r7, #4]
 80011a8:	635a      	str	r2, [r3, #52]	; 0x34
 80011aa:	687b      	ldr	r3, [r7, #4]
 80011ac:	89fa      	ldrh	r2, [r7, #14]
 80011ae:	841a      	strh	r2, [r3, #32]
 80011b0:	bf00      	nop
 80011b2:	3714      	adds	r7, #20
 80011b4:	46bd      	mov	sp, r7
 80011b6:	f85d 7b04 	ldr.w	r7, [sp], #4
 80011ba:	4770      	bx	lr
 80011bc:	40010000 	.word	0x40010000
 80011c0:	40010400 	.word	0x40010400

080011c4 <TIM_OC2Init>:
 80011c4:	b480      	push	{r7}
 80011c6:	b085      	sub	sp, #20
 80011c8:	af00      	add	r7, sp, #0
 80011ca:	6078      	str	r0, [r7, #4]
 80011cc:	6039      	str	r1, [r7, #0]
 80011ce:	2300      	movs	r3, #0
 80011d0:	817b      	strh	r3, [r7, #10]
 80011d2:	2300      	movs	r3, #0
 80011d4:	81fb      	strh	r3, [r7, #14]
 80011d6:	2300      	movs	r3, #0
 80011d8:	81bb      	strh	r3, [r7, #12]
 80011da:	687b      	ldr	r3, [r7, #4]
 80011dc:	8c1b      	ldrh	r3, [r3, #32]
 80011de:	b29b      	uxth	r3, r3
 80011e0:	f023 0310 	bic.w	r3, r3, #16
 80011e4:	b29a      	uxth	r2, r3
 80011e6:	687b      	ldr	r3, [r7, #4]
 80011e8:	841a      	strh	r2, [r3, #32]
 80011ea:	687b      	ldr	r3, [r7, #4]
 80011ec:	8c1b      	ldrh	r3, [r3, #32]
 80011ee:	81fb      	strh	r3, [r7, #14]
 80011f0:	687b      	ldr	r3, [r7, #4]
 80011f2:	889b      	ldrh	r3, [r3, #4]
 80011f4:	81bb      	strh	r3, [r7, #12]
 80011f6:	687b      	ldr	r3, [r7, #4]
 80011f8:	8b1b      	ldrh	r3, [r3, #24]
 80011fa:	817b      	strh	r3, [r7, #10]
 80011fc:	897b      	ldrh	r3, [r7, #10]
 80011fe:	f423 43e0 	bic.w	r3, r3, #28672	; 0x7000
 8001202:	817b      	strh	r3, [r7, #10]
 8001204:	897b      	ldrh	r3, [r7, #10]
 8001206:	f423 7340 	bic.w	r3, r3, #768	; 0x300
 800120a:	817b      	strh	r3, [r7, #10]
 800120c:	683b      	ldr	r3, [r7, #0]
 800120e:	881b      	ldrh	r3, [r3, #0]
 8001210:	021b      	lsls	r3, r3, #8
 8001212:	b29a      	uxth	r2, r3
 8001214:	897b      	ldrh	r3, [r7, #10]
 8001216:	4313      	orrs	r3, r2
 8001218:	817b      	strh	r3, [r7, #10]
 800121a:	89fb      	ldrh	r3, [r7, #14]
 800121c:	f023 0320 	bic.w	r3, r3, #32
 8001220:	81fb      	strh	r3, [r7, #14]
 8001222:	683b      	ldr	r3, [r7, #0]
 8001224:	899b      	ldrh	r3, [r3, #12]
 8001226:	011b      	lsls	r3, r3, #4
 8001228:	b29a      	uxth	r2, r3
 800122a:	89fb      	ldrh	r3, [r7, #14]
 800122c:	4313      	orrs	r3, r2
 800122e:	81fb      	strh	r3, [r7, #14]
 8001230:	683b      	ldr	r3, [r7, #0]
 8001232:	885b      	ldrh	r3, [r3, #2]
 8001234:	011b      	lsls	r3, r3, #4
 8001236:	b29a      	uxth	r2, r3
 8001238:	89fb      	ldrh	r3, [r7, #14]
 800123a:	4313      	orrs	r3, r2
 800123c:	81fb      	strh	r3, [r7, #14]
 800123e:	687b      	ldr	r3, [r7, #4]
 8001240:	4a22      	ldr	r2, [pc, #136]	; (80012cc <TIM_OC2Init+0x108>)
 8001242:	4293      	cmp	r3, r2
 8001244:	d003      	beq.n	800124e <TIM_OC2Init+0x8a>
 8001246:	687b      	ldr	r3, [r7, #4]
 8001248:	4a21      	ldr	r2, [pc, #132]	; (80012d0 <TIM_OC2Init+0x10c>)
 800124a:	4293      	cmp	r3, r2
 800124c:	d12b      	bne.n	80012a6 <TIM_OC2Init+0xe2>
 800124e:	89fb      	ldrh	r3, [r7, #14]
 8001250:	f023 0380 	bic.w	r3, r3, #128	; 0x80
 8001254:	81fb      	strh	r3, [r7, #14]
 8001256:	683b      	ldr	r3, [r7, #0]
 8001258:	89db      	ldrh	r3, [r3, #14]
 800125a:	011b      	lsls	r3, r3, #4
 800125c:	b29a      	uxth	r2, r3
 800125e:	89fb      	ldrh	r3, [r7, #14]
 8001260:	4313      	orrs	r3, r2
 8001262:	81fb      	strh	r3, [r7, #14]
 8001264:	89fb      	ldrh	r3, [r7, #14]
 8001266:	f023 0340 	bic.w	r3, r3, #64	; 0x40
 800126a:	81fb      	strh	r3, [r7, #14]
 800126c:	683b      	ldr	r3, [r7, #0]
 800126e:	889b      	ldrh	r3, [r3, #4]
 8001270:	011b      	lsls	r3, r3, #4
 8001272:	b29a      	uxth	r2, r3
 8001274:	89fb      	ldrh	r3, [r7, #14]
 8001276:	4313      	orrs	r3, r2
 8001278:	81fb      	strh	r3, [r7, #14]
 800127a:	89bb      	ldrh	r3, [r7, #12]
 800127c:	f423 6380 	bic.w	r3, r3, #1024	; 0x400
 8001280:	81bb      	strh	r3, [r7, #12]
 8001282:	89bb      	ldrh	r3, [r7, #12]
 8001284:	f423 6300 	bic.w	r3, r3, #2048	; 0x800
 8001288:	81bb      	strh	r3, [r7, #12]
 800128a:	683b      	ldr	r3, [r7, #0]
 800128c:	8a1b      	ldrh	r3, [r3, #16]
 800128e:	009b      	lsls	r3, r3, #2
 8001290:	b29a      	uxth	r2, r3
 8001292:	89bb      	ldrh	r3, [r7, #12]
 8001294:	4313      	orrs	r3, r2
 8001296:	81bb      	strh	r3, [r7, #12]
 8001298:	683b      	ldr	r3, [r7, #0]
 800129a:	8a5b      	ldrh	r3, [r3, #18]
 800129c:	009b      	lsls	r3, r3, #2
 800129e:	b29a      	uxth	r2, r3
 80012a0:	89bb      	ldrh	r3, [r7, #12]
 80012a2:	4313      	orrs	r3, r2
 80012a4:	81bb      	strh	r3, [r7, #12]
 80012a6:	687b      	ldr	r3, [r7, #4]
 80012a8:	89ba      	ldrh	r2, [r7, #12]
 80012aa:	809a      	strh	r2, [r3, #4]
 80012ac:	687b      	ldr	r3, [r7, #4]
 80012ae:	897a      	ldrh	r2, [r7, #10]
 80012b0:	831a      	strh	r2, [r3, #24]
 80012b2:	683b      	ldr	r3, [r7, #0]
 80012b4:	689a      	ldr	r2, [r3, #8]
 80012b6:	687b      	ldr	r3, [r7, #4]
 80012b8:	639a      	str	r2, [r3, #56]	; 0x38
 80012ba:	687b      	ldr	r3, [r7, #4]
 80012bc:	89fa      	ldrh	r2, [r7, #14]
 80012be:	841a      	strh	r2, [r3, #32]
 80012c0:	bf00      	nop
 80012c2:	3714      	adds	r7, #20
 80012c4:	46bd      	mov	sp, r7
 80012c6:	f85d 7b04 	ldr.w	r7, [sp], #4
 80012ca:	4770      	bx	lr
 80012cc:	40010000 	.word	0x40010000
 80012d0:	40010400 	.word	0x40010400

080012d4 <TIM_OC3Init>:
 80012d4:	b480      	push	{r7}
 80012d6:	b085      	sub	sp, #20
 80012d8:	af00      	add	r7, sp, #0
 80012da:	6078      	str	r0, [r7, #4]
 80012dc:	6039      	str	r1, [r7, #0]
 80012de:	2300      	movs	r3, #0
 80012e0:	817b      	strh	r3, [r7, #10]
 80012e2:	2300      	movs	r3, #0
 80012e4:	81fb      	strh	r3, [r7, #14]
 80012e6:	2300      	movs	r3, #0
 80012e8:	81bb      	strh	r3, [r7, #12]
 80012ea:	687b      	ldr	r3, [r7, #4]
 80012ec:	8c1b      	ldrh	r3, [r3, #32]
 80012ee:	b29b      	uxth	r3, r3
 80012f0:	f423 7380 	bic.w	r3, r3, #256	; 0x100
 80012f4:	b29a      	uxth	r2, r3
 80012f6:	687b      	ldr	r3, [r7, #4]
 80012f8:	841a      	strh	r2, [r3, #32]
 80012fa:	687b      	ldr	r3, [r7, #4]
 80012fc:	8c1b      	ldrh	r3, [r3, #32]
 80012fe:	81fb      	strh	r3, [r7, #14]
 8001300:	687b      	ldr	r3, [r7, #4]
 8001302:	889b      	ldrh	r3, [r3, #4]
 8001304:	81bb      	strh	r3, [r7, #12]
 8001306:	687b      	ldr	r3, [r7, #4]
 8001308:	8b9b      	ldrh	r3, [r3, #28]
 800130a:	817b      	strh	r3, [r7, #10]
 800130c:	897b      	ldrh	r3, [r7, #10]
 800130e:	f023 0370 	bic.w	r3, r3, #112	; 0x70
 8001312:	817b      	strh	r3, [r7, #10]
 8001314:	897b      	ldrh	r3, [r7, #10]
 8001316:	f023 0303 	bic.w	r3, r3, #3
 800131a:	817b      	strh	r3, [r7, #10]
 800131c:	683b      	ldr	r3, [r7, #0]
 800131e:	881a      	ldrh	r2, [r3, #0]
 8001320:	897b      	ldrh	r3, [r7, #10]
 8001322:	4313      	orrs	r3, r2
 8001324:	817b      	strh	r3, [r7, #10]
 8001326:	89fb      	ldrh	r3, [r7, #14]
 8001328:	f423 7300 	bic.w	r3, r3, #512	; 0x200
 800132c:	81fb      	strh	r3, [r7, #14]
 800132e:	683b      	ldr	r3, [r7, #0]
 8001330:	899b      	ldrh	r3, [r3, #12]
 8001332:	021b      	lsls	r3, r3, #8
 8001334:	b29a      	uxth	r2, r3
 8001336:	89fb      	ldrh	r3, [r7, #14]
 8001338:	4313      	orrs	r3, r2
 800133a:	81fb      	strh	r3, [r7, #14]
 800133c:	683b      	ldr	r3, [r7, #0]
 800133e:	885b      	ldrh	r3, [r3, #2]
 8001340:	021b      	lsls	r3, r3, #8
 8001342:	b29a      	uxth	r2, r3
 8001344:	89fb      	ldrh	r3, [r7, #14]
 8001346:	4313      	orrs	r3, r2
 8001348:	81fb      	strh	r3, [r7, #14]
 800134a:	687b      	ldr	r3, [r7, #4]
 800134c:	4a22      	ldr	r2, [pc, #136]	; (80013d8 <TIM_OC3Init+0x104>)
 800134e:	4293      	cmp	r3, r2
 8001350:	d003      	beq.n	800135a <TIM_OC3Init+0x86>
 8001352:	687b      	ldr	r3, [r7, #4]
 8001354:	4a21      	ldr	r2, [pc, #132]	; (80013dc <TIM_OC3Init+0x108>)
 8001356:	4293      	cmp	r3, r2
 8001358:	d12b      	bne.n	80013b2 <TIM_OC3Init+0xde>
 800135a:	89fb      	ldrh	r3, [r7, #14]
 800135c:	f423 6300 	bic.w	r3, r3, #2048	; 0x800
 8001360:	81fb      	strh	r3, [r7, #14]
 8001362:	683b      	ldr	r3, [r7, #0]
 8001364:	89db      	ldrh	r3, [r3, #14]
 8001366:	021b      	lsls	r3, r3, #8
 8001368:	b29a      	uxth	r2, r3
 800136a:	89fb      	ldrh	r3, [r7, #14]
 800136c:	4313      	orrs	r3, r2
 800136e:	81fb      	strh	r3, [r7, #14]
 8001370:	89fb      	ldrh	r3, [r7, #14]
 8001372:	f423 6380 	bic.w	r3, r3, #1024	; 0x400
 8001376:	81fb      	strh	r3, [r7, #14]
 8001378:	683b      	ldr	r3, [r7, #0]
 800137a:	889b      	ldrh	r3, [r3, #4]
 800137c:	021b      	lsls	r3, r3, #8
 800137e:	b29a      	uxth	r2, r3
 8001380:	89fb      	ldrh	r3, [r7, #14]
 8001382:	4313      	orrs	r3, r2
 8001384:	81fb      	strh	r3, [r7, #14]
 8001386:	89bb      	ldrh	r3, [r7, #12]
 8001388:	f423 5380 	bic.w	r3, r3, #4096	; 0x1000
 800138c:	81bb      	strh	r3, [r7, #12]
 800138e:	89bb      	ldrh	r3, [r7, #12]
 8001390:	f423 5300 	bic.w	r3, r3, #8192	; 0x2000
 8001394:	81bb      	strh	r3, [r7, #12]
 8001396:	683b      	ldr	r3, [r7, #0]
 8001398:	8a1b      	ldrh	r3, [r3, #16]
 800139a:	011b      	lsls	r3, r3, #4
 800139c:	b29a      	uxth	r2, r3
 800139e:	89bb      	ldrh	r3, [r7, #12]
 80013a0:	4313      	orrs	r3, r2
 80013a2:	81bb      	strh	r3, [r7, #12]
 80013a4:	683b      	ldr	r3, [r7, #0]
 80013a6:	8a5b      	ldrh	r3, [r3, #18]
 80013a8:	011b      	lsls	r3, r3, #4
 80013aa:	b29a      	uxth	r2, r3
 80013ac:	89bb      	ldrh	r3, [r7, #12]
 80013ae:	4313      	orrs	r3, r2
 80013b0:	81bb      	strh	r3, [r7, #12]
 80013b2:	687b      	ldr	r3, [r7, #4]
 80013b4:	89ba      	ldrh	r2, [r7, #12]
 80013b6:	809a      	strh	r2, [r3, #4]
 80013b8:	687b      	ldr	r3, [r7, #4]
 80013ba:	897a      	ldrh	r2, [r7, #10]
 80013bc:	839a      	strh	r2, [r3, #28]
 80013be:	683b      	ldr	r3, [r7, #0]
 80013c0:	689a      	ldr	r2, [r3, #8]
 80013c2:	687b      	ldr	r3, [r7, #4]
 80013c4:	63da      	str	r2, [r3, #60]	; 0x3c
 80013c6:	687b      	ldr	r3, [r7, #4]
 80013c8:	89fa      	ldrh	r2, [r7, #14]
 80013ca:	841a      	strh	r2, [r3, #32]
 80013cc:	bf00      	nop
 80013ce:	3714      	adds	r7, #20
 80013d0:	46bd      	mov	sp, r7
 80013d2:	f85d 7b04 	ldr.w	r7, [sp], #4
 80013d6:	4770      	bx	lr
 80013d8:	40010000 	.word	0x40010000
 80013dc:	40010400 	.word	0x40010400

080013e0 <TIM_OC4Init>:
 80013e0:	b480      	push	{r7}
 80013e2:	b085      	sub	sp, #20
 80013e4:	af00      	add	r7, sp, #0
 80013e6:	6078      	str	r0, [r7, #4]
 80013e8:	6039      	str	r1, [r7, #0]
 80013ea:	2300      	movs	r3, #0
 80013ec:	81bb      	strh	r3, [r7, #12]
 80013ee:	2300      	movs	r3, #0
 80013f0:	817b      	strh	r3, [r7, #10]
 80013f2:	2300      	movs	r3, #0
 80013f4:	81fb      	strh	r3, [r7, #14]
 80013f6:	687b      	ldr	r3, [r7, #4]
 80013f8:	8c1b      	ldrh	r3, [r3, #32]
 80013fa:	b29b      	uxth	r3, r3
 80013fc:	f423 5380 	bic.w	r3, r3, #4096	; 0x1000
 8001400:	b29a      	uxth	r2, r3
 8001402:	687b      	ldr	r3, [r7, #4]
 8001404:	841a      	strh	r2, [r3, #32]
 8001406:	687b      	ldr	r3, [r7, #4]
 8001408:	8c1b      	ldrh	r3, [r3, #32]
 800140a:	817b      	strh	r3, [r7, #10]
 800140c:	687b      	ldr	r3, [r7, #4]
 800140e:	889b      	ldrh	r3, [r3, #4]
 8001410:	81fb      	strh	r3, [r7, #14]
 8001412:	687b      	ldr	r3, [r7, #4]
 8001414:	8b9b      	ldrh	r3, [r3, #28]
 8001416:	81bb      	strh	r3, [r7, #12]
 8001418:	89bb      	ldrh	r3, [r7, #12]
 800141a:	f423 43e0 	bic.w	r3, r3, #28672	; 0x7000
 800141e:	81bb      	strh	r3, [r7, #12]
 8001420:	89bb      	ldrh	r3, [r7, #12]
 8001422:	f423 7340 	bic.w	r3, r3, #768	; 0x300
 8001426:	81bb      	strh	r3, [r7, #12]
 8001428:	683b      	ldr	r3, [r7, #0]
 800142a:	881b      	ldrh	r3, [r3, #0]
 800142c:	021b      	lsls	r3, r3, #8
 800142e:	b29a      	uxth	r2, r3
 8001430:	89bb      	ldrh	r3, [r7, #12]
 8001432:	4313      	orrs	r3, r2
 8001434:	81bb      	strh	r3, [r7, #12]
 8001436:	897b      	ldrh	r3, [r7, #10]
 8001438:	f423 5300 	bic.w	r3, r3, #8192	; 0x2000
 800143c:	817b      	strh	r3, [r7, #10]
 800143e:	683b      	ldr	r3, [r7, #0]
 8001440:	899b      	ldrh	r3, [r3, #12]
 8001442:	031b      	lsls	r3, r3, #12
 8001444:	b29a      	uxth	r2, r3
 8001446:	897b      	ldrh	r3, [r7, #10]
 8001448:	4313      	orrs	r3, r2
 800144a:	817b      	strh	r3, [r7, #10]
 800144c:	683b      	ldr	r3, [r7, #0]
 800144e:	885b      	ldrh	r3, [r3, #2]
 8001450:	031b      	lsls	r3, r3, #12
 8001452:	b29a      	uxth	r2, r3
 8001454:	897b      	ldrh	r3, [r7, #10]
 8001456:	4313      	orrs	r3, r2
 8001458:	817b      	strh	r3, [r7, #10]
 800145a:	687b      	ldr	r3, [r7, #4]
 800145c:	4a12      	ldr	r2, [pc, #72]	; (80014a8 <TIM_OC4Init+0xc8>)
 800145e:	4293      	cmp	r3, r2
 8001460:	d003      	beq.n	800146a <TIM_OC4Init+0x8a>
 8001462:	687b      	ldr	r3, [r7, #4]
 8001464:	4a11      	ldr	r2, [pc, #68]	; (80014ac <TIM_OC4Init+0xcc>)
 8001466:	4293      	cmp	r3, r2
 8001468:	d10a      	bne.n	8001480 <TIM_OC4Init+0xa0>
 800146a:	89fb      	ldrh	r3, [r7, #14]
 800146c:	f423 4380 	bic.w	r3, r3, #16384	; 0x4000
 8001470:	81fb      	strh	r3, [r7, #14]
 8001472:	683b      	ldr	r3, [r7, #0]
 8001474:	8a1b      	ldrh	r3, [r3, #16]
 8001476:	019b      	lsls	r3, r3, #6
 8001478:	b29a      	uxth	r2, r3
 800147a:	89fb      	ldrh	r3, [r7, #14]
 800147c:	4313      	orrs	r3, r2
 800147e:	81fb      	strh	r3, [r7, #14]
 8001480:	687b      	ldr	r3, [r7, #4]
 8001482:	89fa      	ldrh	r2, [r7, #14]
 8001484:	809a      	strh	r2, [r3, #4]
 8001486:	687b      	ldr	r3, [r7, #4]
 8001488:	89ba      	ldrh	r2, [r7, #12]
 800148a:	839a      	strh	r2, [r3, #28]
 800148c:	683b      	ldr	r3, [r7, #0]
 800148e:	689a      	ldr	r2, [r3, #8]
 8001490:	687b      	ldr	r3, [r7, #4]
 8001492:	641a      	str	r2, [r3, #64]	; 0x40
 8001494:	687b      	ldr	r3, [r7, #4]
 8001496:	897a      	ldrh	r2, [r7, #10]
 8001498:	841a      	strh	r2, [r3, #32]
 800149a:	bf00      	nop
 800149c:	3714      	adds	r7, #20
 800149e:	46bd      	mov	sp, r7
 80014a0:	f85d 7b04 	ldr.w	r7, [sp], #4
 80014a4:	4770      	bx	lr
 80014a6:	bf00      	nop
 80014a8:	40010000 	.word	0x40010000
 80014ac:	40010400 	.word	0x40010400

080014b0 <TIM_SetCompare1>:
 80014b0:	b480      	push	{r7}
 80014b2:	b083      	sub	sp, #12
 80014b4:	af00      	add	r7, sp, #0
 80014b6:	6078      	str	r0, [r7, #4]
 80014b8:	6039      	str	r1, [r7, #0]
 80014ba:	687b      	ldr	r3, [r7, #4]
 80014bc:	683a      	ldr	r2, [r7, #0]
 80014be:	635a      	str	r2, [r3, #52]	; 0x34
 80014c0:	bf00      	nop
 80014c2:	370c      	adds	r7, #12
 80014c4:	46bd      	mov	sp, r7
 80014c6:	f85d 7b04 	ldr.w	r7, [sp], #4
 80014ca:	4770      	bx	lr

080014cc <TIM_SetCompare2>:
 80014cc:	b480      	push	{r7}
 80014ce:	b083      	sub	sp, #12
 80014d0:	af00      	add	r7, sp, #0
 80014d2:	6078      	str	r0, [r7, #4]
 80014d4:	6039      	str	r1, [r7, #0]
 80014d6:	687b      	ldr	r3, [r7, #4]
 80014d8:	683a      	ldr	r2, [r7, #0]
 80014da:	639a      	str	r2, [r3, #56]	; 0x38
 80014dc:	bf00      	nop
 80014de:	370c      	adds	r7, #12
 80014e0:	46bd      	mov	sp, r7
 80014e2:	f85d 7b04 	ldr.w	r7, [sp], #4
 80014e6:	4770      	bx	lr

080014e8 <TIM_SetCompare3>:
 80014e8:	b480      	push	{r7}
 80014ea:	b083      	sub	sp, #12
 80014ec:	af00      	add	r7, sp, #0
 80014ee:	6078      	str	r0, [r7, #4]
 80014f0:	6039      	str	r1, [r7, #0]
 80014f2:	687b      	ldr	r3, [r7, #4]
 80014f4:	683a      	ldr	r2, [r7, #0]
 80014f6:	63da      	str	r2, [r3, #60]	; 0x3c
 80014f8:	bf00      	nop
 80014fa:	370c      	adds	r7, #12
 80014fc:	46bd      	mov	sp, r7
 80014fe:	f85d 7b04 	ldr.w	r7, [sp], #4
 8001502:	4770      	bx	lr

08001504 <TIM_SetCompare4>:
 8001504:	b480      	push	{r7}
 8001506:	b083      	sub	sp, #12
 8001508:	af00      	add	r7, sp, #0
 800150a:	6078      	str	r0, [r7, #4]
 800150c:	6039      	str	r1, [r7, #0]
 800150e:	687b      	ldr	r3, [r7, #4]
 8001510:	683a      	ldr	r2, [r7, #0]
 8001512:	641a      	str	r2, [r3, #64]	; 0x40
 8001514:	bf00      	nop
 8001516:	370c      	adds	r7, #12
 8001518:	46bd      	mov	sp, r7
 800151a:	f85d 7b04 	ldr.w	r7, [sp], #4
 800151e:	4770      	bx	lr

08001520 <TIM_CtrlPWMOutputs>:
 8001520:	b480      	push	{r7}
 8001522:	b083      	sub	sp, #12
 8001524:	af00      	add	r7, sp, #0
 8001526:	6078      	str	r0, [r7, #4]
 8001528:	460b      	mov	r3, r1
 800152a:	70fb      	strb	r3, [r7, #3]
 800152c:	78fb      	ldrb	r3, [r7, #3]
 800152e:	2b00      	cmp	r3, #0
 8001530:	d00c      	beq.n	800154c <TIM_CtrlPWMOutputs+0x2c>
 8001532:	687b      	ldr	r3, [r7, #4]
 8001534:	f8b3 3044 	ldrh.w	r3, [r3, #68]	; 0x44
 8001538:	b29b      	uxth	r3, r3
 800153a:	ea6f 4343 	mvn.w	r3, r3, lsl #17
 800153e:	ea6f 4353 	mvn.w	r3, r3, lsr #17
 8001542:	b29a      	uxth	r2, r3
 8001544:	687b      	ldr	r3, [r7, #4]
 8001546:	f8a3 2044 	strh.w	r2, [r3, #68]	; 0x44
 800154a:	e009      	b.n	8001560 <TIM_CtrlPWMOutputs+0x40>
 800154c:	687b      	ldr	r3, [r7, #4]
 800154e:	f8b3 3044 	ldrh.w	r3, [r3, #68]	; 0x44
 8001552:	b29b      	uxth	r3, r3
 8001554:	f3c3 030e 	ubfx	r3, r3, #0, #15
 8001558:	b29a      	uxth	r2, r3
 800155a:	687b      	ldr	r3, [r7, #4]
 800155c:	f8a3 2044 	strh.w	r2, [r3, #68]	; 0x44
 8001560:	bf00      	nop
 8001562:	370c      	adds	r7, #12
 8001564:	46bd      	mov	sp, r7
 8001566:	f85d 7b04 	ldr.w	r7, [sp], #4
 800156a:	4770      	bx	lr

0800156c <USART_ReceiveData>:
 800156c:	b480      	push	{r7}
 800156e:	b083      	sub	sp, #12
 8001570:	af00      	add	r7, sp, #0
 8001572:	6078      	str	r0, [r7, #4]
 8001574:	687b      	ldr	r3, [r7, #4]
 8001576:	889b      	ldrh	r3, [r3, #4]
 8001578:	b29b      	uxth	r3, r3
 800157a:	f3c3 0308 	ubfx	r3, r3, #0, #9
 800157e:	b29b      	uxth	r3, r3
 8001580:	4618      	mov	r0, r3
 8001582:	370c      	adds	r7, #12
 8001584:	46bd      	mov	sp, r7
 8001586:	f85d 7b04 	ldr.w	r7, [sp], #4
 800158a:	4770      	bx	lr

0800158c <USART_GetITStatus>:
 800158c:	b480      	push	{r7}
 800158e:	b087      	sub	sp, #28
 8001590:	af00      	add	r7, sp, #0
 8001592:	6078      	str	r0, [r7, #4]
 8001594:	460b      	mov	r3, r1
 8001596:	807b      	strh	r3, [r7, #2]
 8001598:	2300      	movs	r3, #0
 800159a:	60fb      	str	r3, [r7, #12]
 800159c:	2300      	movs	r3, #0
 800159e:	617b      	str	r3, [r7, #20]
 80015a0:	2300      	movs	r3, #0
 80015a2:	60bb      	str	r3, [r7, #8]
 80015a4:	2300      	movs	r3, #0
 80015a6:	74fb      	strb	r3, [r7, #19]
 80015a8:	887b      	ldrh	r3, [r7, #2]
 80015aa:	b2db      	uxtb	r3, r3
 80015ac:	095b      	lsrs	r3, r3, #5
 80015ae:	b2db      	uxtb	r3, r3
 80015b0:	60bb      	str	r3, [r7, #8]
 80015b2:	887b      	ldrh	r3, [r7, #2]
 80015b4:	f003 031f 	and.w	r3, r3, #31
 80015b8:	617b      	str	r3, [r7, #20]
 80015ba:	2201      	movs	r2, #1
 80015bc:	697b      	ldr	r3, [r7, #20]
 80015be:	fa02 f303 	lsl.w	r3, r2, r3
 80015c2:	617b      	str	r3, [r7, #20]
 80015c4:	68bb      	ldr	r3, [r7, #8]
 80015c6:	2b01      	cmp	r3, #1
 80015c8:	d107      	bne.n	80015da <USART_GetITStatus+0x4e>
 80015ca:	687b      	ldr	r3, [r7, #4]
 80015cc:	899b      	ldrh	r3, [r3, #12]
 80015ce:	b29b      	uxth	r3, r3
 80015d0:	461a      	mov	r2, r3
 80015d2:	697b      	ldr	r3, [r7, #20]
 80015d4:	4013      	ands	r3, r2
 80015d6:	617b      	str	r3, [r7, #20]
 80015d8:	e011      	b.n	80015fe <USART_GetITStatus+0x72>
 80015da:	68bb      	ldr	r3, [r7, #8]
 80015dc:	2b02      	cmp	r3, #2
 80015de:	d107      	bne.n	80015f0 <USART_GetITStatus+0x64>
 80015e0:	687b      	ldr	r3, [r7, #4]
 80015e2:	8a1b      	ldrh	r3, [r3, #16]
 80015e4:	b29b      	uxth	r3, r3
 80015e6:	461a      	mov	r2, r3
 80015e8:	697b      	ldr	r3, [r7, #20]
 80015ea:	4013      	ands	r3, r2
 80015ec:	617b      	str	r3, [r7, #20]
 80015ee:	e006      	b.n	80015fe <USART_GetITStatus+0x72>
 80015f0:	687b      	ldr	r3, [r7, #4]
 80015f2:	8a9b      	ldrh	r3, [r3, #20]
 80015f4:	b29b      	uxth	r3, r3
 80015f6:	461a      	mov	r2, r3
 80015f8:	697b      	ldr	r3, [r7, #20]
 80015fa:	4013      	ands	r3, r2
 80015fc:	617b      	str	r3, [r7, #20]
 80015fe:	887b      	ldrh	r3, [r7, #2]
 8001600:	0a1b      	lsrs	r3, r3, #8
 8001602:	b29b      	uxth	r3, r3
 8001604:	60fb      	str	r3, [r7, #12]
 8001606:	2201      	movs	r2, #1
 8001608:	68fb      	ldr	r3, [r7, #12]
 800160a:	fa02 f303 	lsl.w	r3, r2, r3
 800160e:	60fb      	str	r3, [r7, #12]
 8001610:	687b      	ldr	r3, [r7, #4]
 8001612:	881b      	ldrh	r3, [r3, #0]
 8001614:	b29b      	uxth	r3, r3
 8001616:	461a      	mov	r2, r3
 8001618:	68fb      	ldr	r3, [r7, #12]
 800161a:	4013      	ands	r3, r2
 800161c:	60fb      	str	r3, [r7, #12]
 800161e:	697b      	ldr	r3, [r7, #20]
 8001620:	2b00      	cmp	r3, #0
 8001622:	d005      	beq.n	8001630 <USART_GetITStatus+0xa4>
 8001624:	68fb      	ldr	r3, [r7, #12]
 8001626:	2b00      	cmp	r3, #0
 8001628:	d002      	beq.n	8001630 <USART_GetITStatus+0xa4>
 800162a:	2301      	movs	r3, #1
 800162c:	74fb      	strb	r3, [r7, #19]
 800162e:	e001      	b.n	8001634 <USART_GetITStatus+0xa8>
 8001630:	2300      	movs	r3, #0
 8001632:	74fb      	strb	r3, [r7, #19]
 8001634:	7cfb      	ldrb	r3, [r7, #19]
 8001636:	4618      	mov	r0, r3
 8001638:	371c      	adds	r7, #28
 800163a:	46bd      	mov	sp, r7
 800163c:	f85d 7b04 	ldr.w	r7, [sp], #4
 8001640:	4770      	bx	lr

08001642 <USART_ClearITPendingBit>:
 8001642:	b480      	push	{r7}
 8001644:	b085      	sub	sp, #20
 8001646:	af00      	add	r7, sp, #0
 8001648:	6078      	str	r0, [r7, #4]
 800164a:	460b      	mov	r3, r1
 800164c:	807b      	strh	r3, [r7, #2]
 800164e:	2300      	movs	r3, #0
 8001650:	81fb      	strh	r3, [r7, #14]
 8001652:	2300      	movs	r3, #0
 8001654:	81bb      	strh	r3, [r7, #12]
 8001656:	887b      	ldrh	r3, [r7, #2]
 8001658:	0a1b      	lsrs	r3, r3, #8
 800165a:	81fb      	strh	r3, [r7, #14]
 800165c:	89fb      	ldrh	r3, [r7, #14]
 800165e:	2201      	movs	r2, #1
 8001660:	fa02 f303 	lsl.w	r3, r2, r3
 8001664:	81bb      	strh	r3, [r7, #12]
 8001666:	89bb      	ldrh	r3, [r7, #12]
 8001668:	43db      	mvns	r3, r3
 800166a:	b29a      	uxth	r2, r3
 800166c:	687b      	ldr	r3, [r7, #4]
 800166e:	801a      	strh	r2, [r3, #0]
 8001670:	bf00      	nop
 8001672:	3714      	adds	r7, #20
 8001674:	46bd      	mov	sp, r7
 8001676:	f85d 7b04 	ldr.w	r7, [sp], #4
 800167a:	4770      	bx	lr

0800167c <__libc_init_array>:
 800167c:	b570      	push	{r4, r5, r6, lr}
 800167e:	4d0d      	ldr	r5, [pc, #52]	; (80016b4 <__libc_init_array+0x38>)
 8001680:	4c0d      	ldr	r4, [pc, #52]	; (80016b8 <__libc_init_array+0x3c>)
 8001682:	1b64      	subs	r4, r4, r5
 8001684:	10a4      	asrs	r4, r4, #2
 8001686:	2600      	movs	r6, #0
 8001688:	42a6      	cmp	r6, r4
 800168a:	d109      	bne.n	80016a0 <__libc_init_array+0x24>
 800168c:	4d0b      	ldr	r5, [pc, #44]	; (80016bc <__libc_init_array+0x40>)
 800168e:	4c0c      	ldr	r4, [pc, #48]	; (80016c0 <__libc_init_array+0x44>)
 8001690:	f000 f818 	bl	80016c4 <_init>
 8001694:	1b64      	subs	r4, r4, r5
 8001696:	10a4      	asrs	r4, r4, #2
 8001698:	2600      	movs	r6, #0
 800169a:	42a6      	cmp	r6, r4
 800169c:	d105      	bne.n	80016aa <__libc_init_array+0x2e>
 800169e:	bd70      	pop	{r4, r5, r6, pc}
 80016a0:	f855 3b04 	ldr.w	r3, [r5], #4
 80016a4:	4798      	blx	r3
 80016a6:	3601      	adds	r6, #1
 80016a8:	e7ee      	b.n	8001688 <__libc_init_array+0xc>
 80016aa:	f855 3b04 	ldr.w	r3, [r5], #4
 80016ae:	4798      	blx	r3
 80016b0:	3601      	adds	r6, #1
 80016b2:	e7f2      	b.n	800169a <__libc_init_array+0x1e>
 80016b4:	080016e0 	.word	0x080016e0
 80016b8:	080016e0 	.word	0x080016e0
 80016bc:	080016e0 	.word	0x080016e0
 80016c0:	080016e4 	.word	0x080016e4

080016c4 <_init>:
 80016c4:	b5f8      	push	{r3, r4, r5, r6, r7, lr}
 80016c6:	bf00      	nop
 80016c8:	bcf8      	pop	{r3, r4, r5, r6, r7}
 80016ca:	bc08      	pop	{r3}
 80016cc:	469e      	mov	lr, r3
 80016ce:	4770      	bx	lr

080016d0 <_fini>:
 80016d0:	b5f8      	push	{r3, r4, r5, r6, r7, lr}
 80016d2:	bf00      	nop
 80016d4:	bcf8      	pop	{r3, r4, r5, r6, r7}
 80016d6:	bc08      	pop	{r3}
 80016d8:	469e      	mov	lr, r3
 80016da:	4770      	bx	lr
